;
; MIT License
; 
; Copyright (c) 2024 Huang Qinjin (huangqinjin@gmail.com)
; 
; Permission is hereby granted, free of charge, to any person obtaining a copy
; of this software and associated documentation files (the "Software"), to deal
; in the Software without restriction, including without limitation the rights
; to use, copy, modify, merge, publish, distribute, sublicense, and/or sell
; copies of the Software, and to permit persons to whom the Software is
; furnished to do so, subject to the following conditions:
; 
; The above copyright notice and this permission notice shall be included in all
; copies or substantial portions of the Software.
; 
; THE SOFTWARE IS PROVIDED "AS IS", WITHOUT WARRANTY OF ANY KIND, EXPRESS OR
; IMPLIED, INCLUDING BUT NOT LIMITED TO THE WARRANTIES OF MERCHANTABILITY,
; FITNESS FOR A PARTICULAR PURPOSE AND NONINFRINGEMENT. IN NO EVENT SHALL THE
; AUTHORS OR COPYRIGHT HOLDERS BE LIABLE FOR ANY CLAIM, DAMAGES OR OTHER
; LIABILITY, WHETHER IN AN ACTION OF CONTRACT, TORT OR OTHERWISE, ARISING FROM,
; OUT OF OR IN CONNECTION WITH THE SOFTWARE OR THE USE OR OTHER DEALINGS IN THE
; SOFTWARE.
;

EXPORTS ; dumpbin -exports ucrtbase.dll | sed -rn 's/^[[:blank:]]*([[:xdigit:]]+[[:blank:]]+){3}([[:alnum:]_]+)/\2/p'

_Cbuild
_Cmulcc
_Cmulcr
_CreateFrameInfo
_CxxThrowException
_Exit
_FCbuild
_FCmulcc
_FCmulcr
_FindAndUnlinkFrame
_GetImageBase
_GetThrowImageBase
_Getdays
_Getmonths
_Gettnames
_IsExceptionObjectToBeDestroyed
_LCbuild
_LCmulcc
_LCmulcr
_SetImageBase
_SetThrowImageBase
_SetWinRTOutOfMemoryExceptionCallback
_Strftime
_W_Getdays
_W_Getmonths
_W_Gettnames
_Wcsftime
__AdjustPointer
__BuildCatchObject
__BuildCatchObjectHelper
__C_specific_handler
__C_specific_handler_noexcept
__CxxDetectRethrow
__CxxExceptionFilter
__CxxFrameHandler
__CxxFrameHandler2
__CxxFrameHandler3
__CxxFrameHandler4
__CxxQueryExceptionSize
__CxxRegisterExceptionObject
__CxxUnregisterExceptionObject
__DestructExceptionObject
__FrameUnwindFilter
__GetPlatformExceptionInfo
__NLG_Dispatch2
__NLG_Return2
__RTCastToVoid
__RTDynamicCast
__RTtypeid
__TypeMatch
___lc_codepage_func
___lc_collate_cp_func
___lc_locale_name_func
___mb_cur_max_func
___mb_cur_max_l_func
__acrt_iob_func
__conio_common_vcprintf
__conio_common_vcprintf_p
__conio_common_vcprintf_s
__conio_common_vcscanf
__conio_common_vcwprintf
__conio_common_vcwprintf_p
__conio_common_vcwprintf_s
__conio_common_vcwscanf
__current_exception
__current_exception_context
__daylight
__dcrt_get_wide_environment_from_os
__dcrt_initial_narrow_environment
__doserrno
__dstbias
__fpe_flt_rounds
__fpecode
__initialize_lconv_for_unsigned_char
__intrinsic_setjmp
__intrinsic_setjmpex
__isascii
__iscsym
__iscsymf
__iswcsym
__iswcsymf
__p___argc
__p___argv
__p___wargv
__p__acmdln
__p__commode
__p__environ
__p__fmode
__p__mbcasemap
__p__mbctype
__p__pgmptr
__p__wcmdln
__p__wenviron
__p__wpgmptr
__pctype_func
__processing_throw
__pwctype_func
__pxcptinfoptrs
__report_gsfailure
__setusermatherr
__std_exception_copy
__std_exception_destroy
__std_terminate
__std_type_info_compare
__std_type_info_destroy_list
__std_type_info_hash
__std_type_info_name
__stdio_common_vfprintf
__stdio_common_vfprintf_p
__stdio_common_vfprintf_s
__stdio_common_vfscanf
__stdio_common_vfwprintf
__stdio_common_vfwprintf_p
__stdio_common_vfwprintf_s
__stdio_common_vfwscanf
__stdio_common_vsnprintf_s
__stdio_common_vsnwprintf_s
__stdio_common_vsprintf
__stdio_common_vsprintf_p
__stdio_common_vsprintf_s
__stdio_common_vsscanf
__stdio_common_vswprintf
__stdio_common_vswprintf_p
__stdio_common_vswprintf_s
__stdio_common_vswscanf
__strncnt
__sys_errlist
__sys_nerr
__threadhandle
__threadid
__timezone
__toascii
__tzname
__unDName
__unDNameEx
__uncaught_exception
__uncaught_exceptions
__wcserror
__wcserror_s
__wcsncnt
_abs64
_access
_access_s
_aligned_free
_aligned_malloc
_aligned_msize
_aligned_offset_malloc
_aligned_offset_realloc
_aligned_offset_recalloc
_aligned_realloc
_aligned_recalloc
_assert
_atodbl
_atodbl_l
_atof_l
_atoflt
_atoflt_l
_atoi64
_atoi64_l
_atoi_l
_atol_l
_atoldbl
_atoldbl_l
_atoll_l
_beep
_beginthread
_beginthreadex
_byteswap_uint64
_byteswap_ulong
_byteswap_ushort
_c_exit
_cabs
_callnewh
_calloc_base
_cexit
_cgets
_cgets_s
_cgetws
_cgetws_s
_chdir
_chdrive
_chgsign
_chgsignf
_chmod
_chsize
_chsize_s
_clearfp
_close
_commit
_configthreadlocale
_configure_narrow_argv
_configure_wide_argv
_control87
_controlfp
_controlfp_s
_copysign
_copysignf
_cputs
_cputws
_creat
_create_locale
_crt_at_quick_exit
_crt_atexit
_ctime32
_ctime32_s
_ctime64
_ctime64_s
_cwait
_d_int
_dclass
_dexp
_difftime32
_difftime64
_dlog
_dnorm
_dpcomp
_dpoly
_dscale
_dsign
_dsin
_dtest
_dunscale
_dup
_dup2
_dupenv_s
_ecvt
_ecvt_s
_endthread
_endthreadex
_eof
_errno
_except1
_execl
_execle
_execlp
_execlpe
_execute_onexit_table
_execv
_execve
_execvp
_execvpe
_exit
_expand
_fclose_nolock
_fcloseall
_fcvt
_fcvt_s
_fd_int
_fdclass
_fdexp
_fdlog
_fdnorm
_fdopen
_fdpcomp
_fdpoly
_fdscale
_fdsign
_fdsin
_fdtest
_fdunscale
_fflush_nolock
_fgetc_nolock
_fgetchar
_fgetwc_nolock
_fgetwchar
_filelength
_filelengthi64
_fileno
_findclose
_findfirst32
_findfirst32i64
_findfirst64
_findfirst64i32
_findnext32
_findnext32i64
_findnext64
_findnext64i32
_finite
_finitef
_flushall
_fpclass
_fpclassf
_fpieee_flt
_fpreset
_fputc_nolock
_fputchar
_fputwc_nolock
_fputwchar
_fread_nolock
_fread_nolock_s
_free_base
_free_locale
_fseek_nolock
_fseeki64
_fseeki64_nolock
_fsopen
_fstat32
_fstat32i64
_fstat64
_fstat64i32
_ftell_nolock
_ftelli64
_ftelli64_nolock
_ftime32
_ftime32_s
_ftime64
_ftime64_s
_fullpath
_futime32
_futime64
_fwrite_nolock
_gcvt
_gcvt_s
_get_FMA3_enable
_get_current_locale
_get_daylight
_get_doserrno
_get_dstbias
_get_errno
_get_fmode
_get_heap_handle
_get_initial_narrow_environment
_get_initial_wide_environment
_get_invalid_parameter_handler
_get_narrow_winmain_command_line
_get_osfhandle
_get_pgmptr
_get_printf_count_output
_get_purecall_handler
_get_stream_buffer_pointers
_get_terminate
_get_thread_local_invalid_parameter_handler
_get_timezone
_get_tzname
_get_unexpected
_get_wide_winmain_command_line
_get_wpgmptr
_getc_nolock
_getch
_getch_nolock
_getche
_getche_nolock
_getcwd
_getdcwd
_getdiskfree
_getdllprocaddr
_getdrive
_getdrives
_getmaxstdio
_getmbcp
_getpid
_getsystime
_getw
_getwc_nolock
_getwch
_getwch_nolock
_getwche
_getwche_nolock
_getws
_getws_s
_gmtime32
_gmtime32_s
_gmtime64
_gmtime64_s
_heapchk
_heapmin
_heapwalk
_hypot
_hypotf
_i64toa
_i64toa_s
_i64tow
_i64tow_s
_initialize_narrow_environment
_initialize_onexit_table
_initialize_wide_environment
_initterm
_initterm_e
_invalid_parameter_noinfo
_invalid_parameter_noinfo_noreturn
_invoke_watson
_is_exception_typeof
_isalnum_l
_isalpha_l
_isatty
_isblank_l
_iscntrl_l
_isctype
_isctype_l
_isdigit_l
_isgraph_l
_isleadbyte_l
_islower_l
_ismbbalnum
_ismbbalnum_l
_ismbbalpha
_ismbbalpha_l
_ismbbblank
_ismbbblank_l
_ismbbgraph
_ismbbgraph_l
_ismbbkalnum
_ismbbkalnum_l
_ismbbkana
_ismbbkana_l
_ismbbkprint
_ismbbkprint_l
_ismbbkpunct
_ismbbkpunct_l
_ismbblead
_ismbblead_l
_ismbbprint
_ismbbprint_l
_ismbbpunct
_ismbbpunct_l
_ismbbtrail
_ismbbtrail_l
_ismbcalnum
_ismbcalnum_l
_ismbcalpha
_ismbcalpha_l
_ismbcblank
_ismbcblank_l
_ismbcdigit
_ismbcdigit_l
_ismbcgraph
_ismbcgraph_l
_ismbchira
_ismbchira_l
_ismbckata
_ismbckata_l
_ismbcl0
_ismbcl0_l
_ismbcl1
_ismbcl1_l
_ismbcl2
_ismbcl2_l
_ismbclegal
_ismbclegal_l
_ismbclower
_ismbclower_l
_ismbcprint
_ismbcprint_l
_ismbcpunct
_ismbcpunct_l
_ismbcspace
_ismbcspace_l
_ismbcsymbol
_ismbcsymbol_l
_ismbcupper
_ismbcupper_l
_ismbslead
_ismbslead_l
_ismbstrail
_ismbstrail_l
_isnan
_isnanf
_isprint_l
_ispunct_l
_isspace_l
_isupper_l
_iswalnum_l
_iswalpha_l
_iswblank_l
_iswcntrl_l
_iswcsym_l
_iswcsymf_l
_iswctype_l
_iswdigit_l
_iswgraph_l
_iswlower_l
_iswprint_l
_iswpunct_l
_iswspace_l
_iswupper_l
_iswxdigit_l
_isxdigit_l
_itoa
_itoa_s
_itow
_itow_s
_j0
_j1
_jn
_kbhit
_ld_int
_ldclass
_ldexp
_ldlog
_ldpcomp
_ldpoly
_ldscale
_ldsign
_ldsin
_ldtest
_ldunscale
_lfind
_lfind_s
_loaddll
_local_unwind
_localtime32
_localtime32_s
_localtime64
_localtime64_s
_lock_file
_lock_locales
_locking
_logb
_logbf
_lrotl
_lrotr
_lsearch
_lsearch_s
_lseek
_lseeki64
_ltoa
_ltoa_s
_ltow
_ltow_s
_makepath
_makepath_s
_malloc_base
_mbbtombc
_mbbtombc_l
_mbbtype
_mbbtype_l
_mbcasemap
_mbccpy
_mbccpy_l
_mbccpy_s
_mbccpy_s_l
_mbcjistojms
_mbcjistojms_l
_mbcjmstojis
_mbcjmstojis_l
_mbclen
_mbclen_l
_mbctohira
_mbctohira_l
_mbctokata
_mbctokata_l
_mbctolower
_mbctolower_l
_mbctombb
_mbctombb_l
_mbctoupper
_mbctoupper_l
_mblen_l
_mbsbtype
_mbsbtype_l
_mbscat_s
_mbscat_s_l
_mbschr
_mbschr_l
_mbscmp
_mbscmp_l
_mbscoll
_mbscoll_l
_mbscpy_s
_mbscpy_s_l
_mbscspn
_mbscspn_l
_mbsdec
_mbsdec_l
_mbsdup
_mbsicmp
_mbsicmp_l
_mbsicoll
_mbsicoll_l
_mbsinc
_mbsinc_l
_mbslen
_mbslen_l
_mbslwr
_mbslwr_l
_mbslwr_s
_mbslwr_s_l
_mbsnbcat
_mbsnbcat_l
_mbsnbcat_s
_mbsnbcat_s_l
_mbsnbcmp
_mbsnbcmp_l
_mbsnbcnt
_mbsnbcnt_l
_mbsnbcoll
_mbsnbcoll_l
_mbsnbcpy
_mbsnbcpy_l
_mbsnbcpy_s
_mbsnbcpy_s_l
_mbsnbicmp
_mbsnbicmp_l
_mbsnbicoll
_mbsnbicoll_l
_mbsnbset
_mbsnbset_l
_mbsnbset_s
_mbsnbset_s_l
_mbsncat
_mbsncat_l
_mbsncat_s
_mbsncat_s_l
_mbsnccnt
_mbsnccnt_l
_mbsncmp
_mbsncmp_l
_mbsncoll
_mbsncoll_l
_mbsncpy
_mbsncpy_l
_mbsncpy_s
_mbsncpy_s_l
_mbsnextc
_mbsnextc_l
_mbsnicmp
_mbsnicmp_l
_mbsnicoll
_mbsnicoll_l
_mbsninc
_mbsninc_l
_mbsnlen
_mbsnlen_l
_mbsnset
_mbsnset_l
_mbsnset_s
_mbsnset_s_l
_mbspbrk
_mbspbrk_l
_mbsrchr
_mbsrchr_l
_mbsrev
_mbsrev_l
_mbsset
_mbsset_l
_mbsset_s
_mbsset_s_l
_mbsspn
_mbsspn_l
_mbsspnp
_mbsspnp_l
_mbsstr
_mbsstr_l
_mbstok
_mbstok_l
_mbstok_s
_mbstok_s_l
_mbstowcs_l
_mbstowcs_s_l
_mbstrlen
_mbstrlen_l
_mbstrnlen
_mbstrnlen_l
_mbsupr
_mbsupr_l
_mbsupr_s
_mbsupr_s_l
_mbtowc_l
_memccpy
_memicmp
_memicmp_l
_mkdir
_mkgmtime32
_mkgmtime64
_mktemp
_mktemp_s
_mktime32
_mktime64
_msize
_nextafter
_nextafterf
;_o__Getdays
;_o__Getmonths
;_o__Gettnames
;_o__Strftime
;_o__W_Getdays
;_o__W_Getmonths
;_o__W_Gettnames
;_o__Wcsftime
;_o____lc_codepage_func
;_o____lc_collate_cp_func
;_o____lc_locale_name_func
;_o____mb_cur_max_func
;_o___acrt_iob_func
;_o___conio_common_vcprintf
;_o___conio_common_vcprintf_p
;_o___conio_common_vcprintf_s
;_o___conio_common_vcscanf
;_o___conio_common_vcwprintf
;_o___conio_common_vcwprintf_p
;_o___conio_common_vcwprintf_s
;_o___conio_common_vcwscanf
;_o___daylight
;_o___dstbias
;_o___fpe_flt_rounds
;_o___p___argc
;_o___p___argv
;_o___p___wargv
;_o___p__acmdln
;_o___p__commode
;_o___p__environ
;_o___p__fmode
;_o___p__mbcasemap
;_o___p__mbctype
;_o___p__pgmptr
;_o___p__wcmdln
;_o___p__wenviron
;_o___p__wpgmptr
;_o___pctype_func
;_o___pwctype_func
;_o___std_exception_copy
;_o___std_exception_destroy
;_o___std_type_info_destroy_list
;_o___std_type_info_name
;_o___stdio_common_vfprintf
;_o___stdio_common_vfprintf_p
;_o___stdio_common_vfprintf_s
;_o___stdio_common_vfscanf
;_o___stdio_common_vfwprintf
;_o___stdio_common_vfwprintf_p
;_o___stdio_common_vfwprintf_s
;_o___stdio_common_vfwscanf
;_o___stdio_common_vsnprintf_s
;_o___stdio_common_vsnwprintf_s
;_o___stdio_common_vsprintf
;_o___stdio_common_vsprintf_p
;_o___stdio_common_vsprintf_s
;_o___stdio_common_vsscanf
;_o___stdio_common_vswprintf
;_o___stdio_common_vswprintf_p
;_o___stdio_common_vswprintf_s
;_o___stdio_common_vswscanf
;_o___timezone
;_o___tzname
;_o___wcserror
;_o__access
;_o__access_s
;_o__aligned_free
;_o__aligned_malloc
;_o__aligned_msize
;_o__aligned_offset_malloc
;_o__aligned_offset_realloc
;_o__aligned_offset_recalloc
;_o__aligned_realloc
;_o__aligned_recalloc
;_o__atodbl
;_o__atodbl_l
;_o__atof_l
;_o__atoflt
;_o__atoflt_l
;_o__atoi64
;_o__atoi64_l
;_o__atoi_l
;_o__atol_l
;_o__atoldbl
;_o__atoldbl_l
;_o__atoll_l
;_o__beep
;_o__beginthread
;_o__beginthreadex
;_o__cabs
;_o__callnewh
;_o__calloc_base
;_o__cexit
;_o__cgets
;_o__cgets_s
;_o__cgetws
;_o__cgetws_s
;_o__chdir
;_o__chdrive
;_o__chmod
;_o__chsize
;_o__chsize_s
;_o__close
;_o__commit
;_o__configthreadlocale
;_o__configure_narrow_argv
;_o__configure_wide_argv
;_o__controlfp_s
;_o__cputs
;_o__cputws
;_o__creat
;_o__create_locale
;_o__crt_atexit
;_o__ctime32_s
;_o__ctime64_s
;_o__cwait
;_o__d_int
;_o__dclass
;_o__difftime32
;_o__difftime64
;_o__dlog
;_o__dnorm
;_o__dpcomp
;_o__dpoly
;_o__dscale
;_o__dsign
;_o__dsin
;_o__dtest
;_o__dunscale
;_o__dup
;_o__dup2
;_o__dupenv_s
;_o__ecvt
;_o__ecvt_s
;_o__endthread
;_o__endthreadex
;_o__eof
;_o__errno
;_o__except1
;_o__execute_onexit_table
;_o__execv
;_o__execve
;_o__execvp
;_o__execvpe
;_o__exit
;_o__expand
;_o__fclose_nolock
;_o__fcloseall
;_o__fcvt
;_o__fcvt_s
;_o__fd_int
;_o__fdclass
;_o__fdexp
;_o__fdlog
;_o__fdopen
;_o__fdpcomp
;_o__fdpoly
;_o__fdscale
;_o__fdsign
;_o__fdsin
;_o__fflush_nolock
;_o__fgetc_nolock
;_o__fgetchar
;_o__fgetwc_nolock
;_o__fgetwchar
;_o__filelength
;_o__filelengthi64
;_o__fileno
;_o__findclose
;_o__findfirst32
;_o__findfirst32i64
;_o__findfirst64
;_o__findfirst64i32
;_o__findnext32
;_o__findnext32i64
;_o__findnext64
;_o__findnext64i32
;_o__flushall
;_o__fpclass
;_o__fpclassf
;_o__fputc_nolock
;_o__fputchar
;_o__fputwc_nolock
;_o__fputwchar
;_o__fread_nolock
;_o__fread_nolock_s
;_o__free_base
;_o__free_locale
;_o__fseek_nolock
;_o__fseeki64
;_o__fseeki64_nolock
;_o__fsopen
;_o__fstat32
;_o__fstat32i64
;_o__fstat64
;_o__fstat64i32
;_o__ftell_nolock
;_o__ftelli64
;_o__ftelli64_nolock
;_o__ftime32
;_o__ftime32_s
;_o__ftime64
;_o__ftime64_s
;_o__fullpath
;_o__futime32
;_o__futime64
;_o__fwrite_nolock
;_o__gcvt
;_o__gcvt_s
;_o__get_daylight
;_o__get_doserrno
;_o__get_dstbias
;_o__get_errno
;_o__get_fmode
;_o__get_heap_handle
;_o__get_initial_narrow_environment
;_o__get_initial_wide_environment
;_o__get_invalid_parameter_handler
;_o__get_narrow_winmain_command_line
;_o__get_osfhandle
;_o__get_pgmptr
;_o__get_stream_buffer_pointers
;_o__get_terminate
;_o__get_thread_local_invalid_parameter_handler
;_o__get_timezone
;_o__get_tzname
;_o__get_wide_winmain_command_line
;_o__get_wpgmptr
;_o__getc_nolock
;_o__getch
;_o__getch_nolock
;_o__getche
;_o__getche_nolock
;_o__getcwd
;_o__getdcwd
;_o__getdiskfree
;_o__getdllprocaddr
;_o__getdrive
;_o__getdrives
;_o__getmbcp
;_o__getsystime
;_o__getw
;_o__getwc_nolock
;_o__getwch
;_o__getwch_nolock
;_o__getwche
;_o__getwche_nolock
;_o__getws
;_o__getws_s
;_o__gmtime32
;_o__gmtime32_s
;_o__gmtime64
;_o__gmtime64_s
;_o__heapchk
;_o__heapmin
;_o__hypot
;_o__hypotf
;_o__i64toa
;_o__i64toa_s
;_o__i64tow
;_o__i64tow_s
;_o__initialize_narrow_environment
;_o__initialize_onexit_table
;_o__initialize_wide_environment
;_o__invalid_parameter_noinfo
;_o__invalid_parameter_noinfo_noreturn
;_o__isatty
;_o__isctype
;_o__isctype_l
;_o__isleadbyte_l
;_o__ismbbalnum
;_o__ismbbalnum_l
;_o__ismbbalpha
;_o__ismbbalpha_l
;_o__ismbbblank
;_o__ismbbblank_l
;_o__ismbbgraph
;_o__ismbbgraph_l
;_o__ismbbkalnum
;_o__ismbbkalnum_l
;_o__ismbbkana
;_o__ismbbkana_l
;_o__ismbbkprint
;_o__ismbbkprint_l
;_o__ismbbkpunct
;_o__ismbbkpunct_l
;_o__ismbblead
;_o__ismbblead_l
;_o__ismbbprint
;_o__ismbbprint_l
;_o__ismbbpunct
;_o__ismbbpunct_l
;_o__ismbbtrail
;_o__ismbbtrail_l
;_o__ismbcalnum
;_o__ismbcalnum_l
;_o__ismbcalpha
;_o__ismbcalpha_l
;_o__ismbcblank
;_o__ismbcblank_l
;_o__ismbcdigit
;_o__ismbcdigit_l
;_o__ismbcgraph
;_o__ismbcgraph_l
;_o__ismbchira
;_o__ismbchira_l
;_o__ismbckata
;_o__ismbckata_l
;_o__ismbcl0
;_o__ismbcl0_l
;_o__ismbcl1
;_o__ismbcl1_l
;_o__ismbcl2
;_o__ismbcl2_l
;_o__ismbclegal
;_o__ismbclegal_l
;_o__ismbclower
;_o__ismbclower_l
;_o__ismbcprint
;_o__ismbcprint_l
;_o__ismbcpunct
;_o__ismbcpunct_l
;_o__ismbcspace
;_o__ismbcspace_l
;_o__ismbcsymbol
;_o__ismbcsymbol_l
;_o__ismbcupper
;_o__ismbcupper_l
;_o__ismbslead
;_o__ismbslead_l
;_o__ismbstrail
;_o__ismbstrail_l
;_o__iswctype_l
;_o__itoa
;_o__itoa_s
;_o__itow
;_o__itow_s
;_o__j0
;_o__j1
;_o__jn
;_o__kbhit
;_o__ld_int
;_o__ldclass
;_o__ldexp
;_o__ldlog
;_o__ldpcomp
;_o__ldpoly
;_o__ldscale
;_o__ldsign
;_o__ldsin
;_o__ldtest
;_o__ldunscale
;_o__lfind
;_o__lfind_s
;_o__loaddll
;_o__localtime32
;_o__localtime32_s
;_o__localtime64
;_o__localtime64_s
;_o__lock_file
;_o__locking
;_o__logb
;_o__logbf
;_o__lsearch
;_o__lsearch_s
;_o__lseek
;_o__lseeki64
;_o__ltoa
;_o__ltoa_s
;_o__ltow
;_o__ltow_s
;_o__makepath
;_o__makepath_s
;_o__malloc_base
;_o__mbbtombc
;_o__mbbtombc_l
;_o__mbbtype
;_o__mbbtype_l
;_o__mbccpy
;_o__mbccpy_l
;_o__mbccpy_s
;_o__mbccpy_s_l
;_o__mbcjistojms
;_o__mbcjistojms_l
;_o__mbcjmstojis
;_o__mbcjmstojis_l
;_o__mbclen
;_o__mbclen_l
;_o__mbctohira
;_o__mbctohira_l
;_o__mbctokata
;_o__mbctokata_l
;_o__mbctolower
;_o__mbctolower_l
;_o__mbctombb
;_o__mbctombb_l
;_o__mbctoupper
;_o__mbctoupper_l
;_o__mblen_l
;_o__mbsbtype
;_o__mbsbtype_l
;_o__mbscat_s
;_o__mbscat_s_l
;_o__mbschr
;_o__mbschr_l
;_o__mbscmp
;_o__mbscmp_l
;_o__mbscoll
;_o__mbscoll_l
;_o__mbscpy_s
;_o__mbscpy_s_l
;_o__mbscspn
;_o__mbscspn_l
;_o__mbsdec
;_o__mbsdec_l
;_o__mbsicmp
;_o__mbsicmp_l
;_o__mbsicoll
;_o__mbsicoll_l
;_o__mbsinc
;_o__mbsinc_l
;_o__mbslen
;_o__mbslen_l
;_o__mbslwr
;_o__mbslwr_l
;_o__mbslwr_s
;_o__mbslwr_s_l
;_o__mbsnbcat
;_o__mbsnbcat_l
;_o__mbsnbcat_s
;_o__mbsnbcat_s_l
;_o__mbsnbcmp
;_o__mbsnbcmp_l
;_o__mbsnbcnt
;_o__mbsnbcnt_l
;_o__mbsnbcoll
;_o__mbsnbcoll_l
;_o__mbsnbcpy
;_o__mbsnbcpy_l
;_o__mbsnbcpy_s
;_o__mbsnbcpy_s_l
;_o__mbsnbicmp
;_o__mbsnbicmp_l
;_o__mbsnbicoll
;_o__mbsnbicoll_l
;_o__mbsnbset
;_o__mbsnbset_l
;_o__mbsnbset_s
;_o__mbsnbset_s_l
;_o__mbsncat
;_o__mbsncat_l
;_o__mbsncat_s
;_o__mbsncat_s_l
;_o__mbsnccnt
;_o__mbsnccnt_l
;_o__mbsncmp
;_o__mbsncmp_l
;_o__mbsncoll
;_o__mbsncoll_l
;_o__mbsncpy
;_o__mbsncpy_l
;_o__mbsncpy_s
;_o__mbsncpy_s_l
;_o__mbsnextc
;_o__mbsnextc_l
;_o__mbsnicmp
;_o__mbsnicmp_l
;_o__mbsnicoll
;_o__mbsnicoll_l
;_o__mbsninc
;_o__mbsninc_l
;_o__mbsnlen
;_o__mbsnlen_l
;_o__mbsnset
;_o__mbsnset_l
;_o__mbsnset_s
;_o__mbsnset_s_l
;_o__mbspbrk
;_o__mbspbrk_l
;_o__mbsrchr
;_o__mbsrchr_l
;_o__mbsrev
;_o__mbsrev_l
;_o__mbsset
;_o__mbsset_l
;_o__mbsset_s
;_o__mbsset_s_l
;_o__mbsspn
;_o__mbsspn_l
;_o__mbsspnp
;_o__mbsspnp_l
;_o__mbsstr
;_o__mbsstr_l
;_o__mbstok
;_o__mbstok_l
;_o__mbstok_s
;_o__mbstok_s_l
;_o__mbstowcs_l
;_o__mbstowcs_s_l
;_o__mbstrlen
;_o__mbstrlen_l
;_o__mbstrnlen
;_o__mbstrnlen_l
;_o__mbsupr
;_o__mbsupr_l
;_o__mbsupr_s
;_o__mbsupr_s_l
;_o__mbtowc_l
;_o__memicmp
;_o__memicmp_l
;_o__mkdir
;_o__mkgmtime32
;_o__mkgmtime64
;_o__mktemp
;_o__mktemp_s
;_o__mktime32
;_o__mktime64
;_o__msize
;_o__nextafter
;_o__nextafterf
;_o__open_osfhandle
;_o__pclose
;_o__pipe
;_o__popen
;_o__purecall
;_o__putc_nolock
;_o__putch
;_o__putch_nolock
;_o__putenv
;_o__putenv_s
;_o__putw
;_o__putwc_nolock
;_o__putwch
;_o__putwch_nolock
;_o__putws
;_o__read
;_o__realloc_base
;_o__recalloc
;_o__register_onexit_function
;_o__resetstkoflw
;_o__rmdir
;_o__rmtmp
;_o__scalb
;_o__scalbf
;_o__searchenv
;_o__searchenv_s
;_o__seh_filter_dll
;_o__seh_filter_exe
;_o__set_abort_behavior
;_o__set_app_type
;_o__set_doserrno
;_o__set_errno
;_o__set_fmode
;_o__set_invalid_parameter_handler
;_o__set_new_handler
;_o__set_new_mode
;_o__set_thread_local_invalid_parameter_handler
;_o__seterrormode
;_o__setmbcp
;_o__setmode
;_o__setsystime
;_o__sleep
;_o__sopen
;_o__sopen_dispatch
;_o__sopen_s
;_o__spawnv
;_o__spawnve
;_o__spawnvp
;_o__spawnvpe
;_o__splitpath
;_o__splitpath_s
;_o__stat32
;_o__stat32i64
;_o__stat64
;_o__stat64i32
;_o__strcoll_l
;_o__strdate
;_o__strdate_s
;_o__strdup
;_o__strerror
;_o__strerror_s
;_o__strftime_l
;_o__stricmp
;_o__stricmp_l
;_o__stricoll
;_o__stricoll_l
;_o__strlwr
;_o__strlwr_l
;_o__strlwr_s
;_o__strlwr_s_l
;_o__strncoll
;_o__strncoll_l
;_o__strnicmp
;_o__strnicmp_l
;_o__strnicoll
;_o__strnicoll_l
;_o__strnset_s
;_o__strset_s
;_o__strtime
;_o__strtime_s
;_o__strtod_l
;_o__strtof_l
;_o__strtoi64
;_o__strtoi64_l
;_o__strtol_l
;_o__strtold_l
;_o__strtoll_l
;_o__strtoui64
;_o__strtoui64_l
;_o__strtoul_l
;_o__strtoull_l
;_o__strupr
;_o__strupr_l
;_o__strupr_s
;_o__strupr_s_l
;_o__strxfrm_l
;_o__swab
;_o__tell
;_o__telli64
;_o__timespec32_get
;_o__timespec64_get
;_o__tolower
;_o__tolower_l
;_o__toupper
;_o__toupper_l
;_o__towlower_l
;_o__towupper_l
;_o__tzset
;_o__ui64toa
;_o__ui64toa_s
;_o__ui64tow
;_o__ui64tow_s
;_o__ultoa
;_o__ultoa_s
;_o__ultow
;_o__ultow_s
;_o__umask
;_o__umask_s
;_o__ungetc_nolock
;_o__ungetch
;_o__ungetch_nolock
;_o__ungetwc_nolock
;_o__ungetwch
;_o__ungetwch_nolock
;_o__unlink
;_o__unloaddll
;_o__unlock_file
;_o__utime32
;_o__utime64
;_o__waccess
;_o__waccess_s
;_o__wasctime
;_o__wasctime_s
;_o__wchdir
;_o__wchmod
;_o__wcreat
;_o__wcreate_locale
;_o__wcscoll_l
;_o__wcsdup
;_o__wcserror
;_o__wcserror_s
;_o__wcsftime_l
;_o__wcsicmp
;_o__wcsicmp_l
;_o__wcsicoll
;_o__wcsicoll_l
;_o__wcslwr
;_o__wcslwr_l
;_o__wcslwr_s
;_o__wcslwr_s_l
;_o__wcsncoll
;_o__wcsncoll_l
;_o__wcsnicmp
;_o__wcsnicmp_l
;_o__wcsnicoll
;_o__wcsnicoll_l
;_o__wcsnset
;_o__wcsnset_s
;_o__wcsset
;_o__wcsset_s
;_o__wcstod_l
;_o__wcstof_l
;_o__wcstoi64
;_o__wcstoi64_l
;_o__wcstol_l
;_o__wcstold_l
;_o__wcstoll_l
;_o__wcstombs_l
;_o__wcstombs_s_l
;_o__wcstoui64
;_o__wcstoui64_l
;_o__wcstoul_l
;_o__wcstoull_l
;_o__wcsupr
;_o__wcsupr_l
;_o__wcsupr_s
;_o__wcsupr_s_l
;_o__wcsxfrm_l
;_o__wctime32
;_o__wctime32_s
;_o__wctime64
;_o__wctime64_s
;_o__wctomb_l
;_o__wctomb_s_l
;_o__wdupenv_s
;_o__wexecv
;_o__wexecve
;_o__wexecvp
;_o__wexecvpe
;_o__wfdopen
;_o__wfindfirst32
;_o__wfindfirst32i64
;_o__wfindfirst64
;_o__wfindfirst64i32
;_o__wfindnext32
;_o__wfindnext32i64
;_o__wfindnext64
;_o__wfindnext64i32
;_o__wfopen
;_o__wfopen_s
;_o__wfreopen
;_o__wfreopen_s
;_o__wfsopen
;_o__wfullpath
;_o__wgetcwd
;_o__wgetdcwd
;_o__wgetenv
;_o__wgetenv_s
;_o__wmakepath
;_o__wmakepath_s
;_o__wmkdir
;_o__wmktemp
;_o__wmktemp_s
;_o__wperror
;_o__wpopen
;_o__wputenv
;_o__wputenv_s
;_o__wremove
;_o__wrename
;_o__write
;_o__wrmdir
;_o__wsearchenv
;_o__wsearchenv_s
;_o__wsetlocale
;_o__wsopen_dispatch
;_o__wsopen_s
;_o__wspawnv
;_o__wspawnve
;_o__wspawnvp
;_o__wspawnvpe
;_o__wsplitpath
;_o__wsplitpath_s
;_o__wstat32
;_o__wstat32i64
;_o__wstat64
;_o__wstat64i32
;_o__wstrdate
;_o__wstrdate_s
;_o__wstrtime
;_o__wstrtime_s
;_o__wsystem
;_o__wtmpnam_s
;_o__wtof
;_o__wtof_l
;_o__wtoi
;_o__wtoi64
;_o__wtoi64_l
;_o__wtoi_l
;_o__wtol
;_o__wtol_l
;_o__wtoll
;_o__wtoll_l
;_o__wunlink
;_o__wutime32
;_o__wutime64
;_o__y0
;_o__y1
;_o__yn
;_o_abort
;_o_acos
;_o_acosf
;_o_acosh
;_o_acoshf
;_o_acoshl
;_o_asctime
;_o_asctime_s
;_o_asin
;_o_asinf
;_o_asinh
;_o_asinhf
;_o_asinhl
;_o_atan
;_o_atan2
;_o_atan2f
;_o_atanf
;_o_atanh
;_o_atanhf
;_o_atanhl
;_o_atof
;_o_atoi
;_o_atol
;_o_atoll
;_o_bsearch
;_o_bsearch_s
;_o_btowc
;_o_calloc
;_o_cbrt
;_o_cbrtf
;_o_ceil
;_o_ceilf
;_o_clearerr
;_o_clearerr_s
;_o_cos
;_o_cosf
;_o_cosh
;_o_coshf
;_o_erf
;_o_erfc
;_o_erfcf
;_o_erfcl
;_o_erff
;_o_erfl
;_o_exit
;_o_exp
;_o_exp2
;_o_exp2f
;_o_exp2l
;_o_expf
;_o_fabs
;_o_fclose
;_o_feof
;_o_ferror
;_o_fflush
;_o_fgetc
;_o_fgetpos
;_o_fgets
;_o_fgetwc
;_o_fgetws
;_o_floor
;_o_floorf
;_o_fma
;_o_fmaf
;_o_fmal
;_o_fmod
;_o_fmodf
;_o_fopen
;_o_fopen_s
;_o_fputc
;_o_fputs
;_o_fputwc
;_o_fputws
;_o_fread
;_o_fread_s
;_o_free
;_o_freopen
;_o_freopen_s
;_o_frexp
;_o_fseek
;_o_fsetpos
;_o_ftell
;_o_fwrite
;_o_getc
;_o_getchar
;_o_getenv
;_o_getenv_s
;_o_gets
;_o_gets_s
;_o_getwc
;_o_getwchar
;_o_hypot
;_o_is_wctype
;_o_isalnum
;_o_isalpha
;_o_isblank
;_o_iscntrl
;_o_isdigit
;_o_isgraph
;_o_isleadbyte
;_o_islower
;_o_isprint
;_o_ispunct
;_o_isspace
;_o_isupper
;_o_iswalnum
;_o_iswalpha
;_o_iswascii
;_o_iswblank
;_o_iswcntrl
;_o_iswctype
;_o_iswdigit
;_o_iswgraph
;_o_iswlower
;_o_iswprint
;_o_iswpunct
;_o_iswspace
;_o_iswupper
;_o_iswxdigit
;_o_isxdigit
;_o_ldexp
;_o_lgamma
;_o_lgammaf
;_o_lgammal
;_o_llrint
;_o_llrintf
;_o_llrintl
;_o_llround
;_o_llroundf
;_o_llroundl
;_o_localeconv
;_o_log
;_o_log10
;_o_log10f
;_o_log1p
;_o_log1pf
;_o_log1pl
;_o_log2
;_o_log2f
;_o_log2l
;_o_logb
;_o_logbf
;_o_logbl
;_o_logf
;_o_lrint
;_o_lrintf
;_o_lrintl
;_o_lround
;_o_lroundf
;_o_lroundl
;_o_malloc
;_o_mblen
;_o_mbrlen
;_o_mbrtoc16
;_o_mbrtoc32
;_o_mbrtowc
;_o_mbsrtowcs
;_o_mbsrtowcs_s
;_o_mbstowcs
;_o_mbstowcs_s
;_o_mbtowc
;_o_memcpy_s
;_o_memset
;_o_modf
;_o_modff
;_o_nan
;_o_nanf
;_o_nanl
;_o_nearbyint
;_o_nearbyintf
;_o_nearbyintl
;_o_nextafter
;_o_nextafterf
;_o_nextafterl
;_o_nexttoward
;_o_nexttowardf
;_o_nexttowardl
;_o_pow
;_o_powf
;_o_putc
;_o_putchar
;_o_puts
;_o_putwc
;_o_putwchar
;_o_qsort
;_o_qsort_s
;_o_raise
;_o_rand
;_o_rand_s
;_o_realloc
;_o_remainder
;_o_remainderf
;_o_remainderl
;_o_remove
;_o_remquo
;_o_remquof
;_o_remquol
;_o_rename
;_o_rewind
;_o_rint
;_o_rintf
;_o_rintl
;_o_round
;_o_roundf
;_o_roundl
;_o_scalbln
;_o_scalblnf
;_o_scalblnl
;_o_scalbn
;_o_scalbnf
;_o_scalbnl
;_o_set_terminate
;_o_setbuf
;_o_setlocale
;_o_setvbuf
;_o_sin
;_o_sinf
;_o_sinh
;_o_sinhf
;_o_sqrt
;_o_sqrtf
;_o_srand
;_o_strcat_s
;_o_strcoll
;_o_strcpy_s
;_o_strerror
;_o_strerror_s
;_o_strftime
;_o_strncat_s
;_o_strncpy_s
;_o_strtod
;_o_strtof
;_o_strtok
;_o_strtok_s
;_o_strtol
;_o_strtold
;_o_strtoll
;_o_strtoul
;_o_strtoull
;_o_system
;_o_tan
;_o_tanf
;_o_tanh
;_o_tanhf
;_o_terminate
;_o_tgamma
;_o_tgammaf
;_o_tgammal
;_o_tmpfile_s
;_o_tmpnam_s
;_o_tolower
;_o_toupper
;_o_towlower
;_o_towupper
;_o_ungetc
;_o_ungetwc
;_o_wcrtomb
;_o_wcrtomb_s
;_o_wcscat_s
;_o_wcscoll
;_o_wcscpy
;_o_wcscpy_s
;_o_wcsftime
;_o_wcsncat_s
;_o_wcsncpy_s
;_o_wcsrtombs
;_o_wcsrtombs_s
;_o_wcstod
;_o_wcstof
;_o_wcstok
;_o_wcstok_s
;_o_wcstol
;_o_wcstold
;_o_wcstoll
;_o_wcstombs
;_o_wcstombs_s
;_o_wcstoul
;_o_wcstoull
;_o_wctob
;_o_wctomb
;_o_wctomb_s
;_o_wmemcpy_s
;_o_wmemmove_s
_open
_open_osfhandle
_pclose
_pipe
_popen
_purecall
_putc_nolock
_putch
_putch_nolock
_putenv
_putenv_s
_putw
_putwc_nolock
_putwch
_putwch_nolock
_putws
_query_app_type
_query_new_handler
_query_new_mode
_read
_realloc_base
_recalloc
_register_onexit_function
_register_thread_local_exe_atexit_callback
_resetstkoflw
_rmdir
_rmtmp
_rotl
_rotl64
_rotr
_rotr64
_scalb
_scalbf
_searchenv
_searchenv_s
_seh_filter_dll
_seh_filter_exe
_set_FMA3_enable
_set_abort_behavior
_set_app_type
_set_controlfp
_set_doserrno
_set_errno
_set_error_mode
_set_fmode
_set_invalid_parameter_handler
_set_new_handler
_set_new_mode
_set_printf_count_output
_set_purecall_handler
_set_se_translator
_set_thread_local_invalid_parameter_handler
_seterrormode
_setmaxstdio
_setmbcp
_setmode
_setsystime
_sleep
_sopen
_sopen_dispatch
_sopen_s
_spawnl
_spawnle
_spawnlp
_spawnlpe
_spawnv
_spawnve
_spawnvp
_spawnvpe
_splitpath
_splitpath_s
_stat32
_stat32i64
_stat64
_stat64i32
_statusfp
_strcoll_l
_strdate
_strdate_s
_strdup
_strerror
_strerror_s
_strftime_l
_stricmp
_stricmp_l
_stricoll
_stricoll_l
_strlwr
_strlwr_l
_strlwr_s
_strlwr_s_l
_strncoll
_strncoll_l
_strnicmp
_strnicmp_l
_strnicoll
_strnicoll_l
_strnset
_strnset_s
_strrev
_strset
_strset_s
_strtime
_strtime_s
_strtod_l
_strtof_l
_strtoi64
_strtoi64_l
_strtoimax_l
_strtol_l
_strtold_l
_strtoll_l
_strtoui64
_strtoui64_l
_strtoul_l
_strtoull_l
_strtoumax_l
_strupr
_strupr_l
_strupr_s
_strupr_s_l
_strxfrm_l
_swab
_tell
_telli64
_tempnam
_time32
_time64
_timespec32_get
_timespec64_get
_tolower
_tolower_l
_toupper
_toupper_l
_towlower_l
_towupper_l
_tzset
_ui64toa
_ui64toa_s
_ui64tow
_ui64tow_s
_ultoa
_ultoa_s
_ultow
_ultow_s
_umask
_umask_s
_ungetc_nolock
_ungetch
_ungetch_nolock
_ungetwc_nolock
_ungetwch
_ungetwch_nolock
_unlink
_unloaddll
_unlock_file
_unlock_locales
_utime32
_utime64
_waccess
_waccess_s
_wasctime
_wasctime_s
_wassert
_wchdir
_wchmod
_wcreat
_wcreate_locale
_wcscoll_l
_wcsdup
_wcserror
_wcserror_s
_wcsftime_l
_wcsicmp
_wcsicmp_l
_wcsicoll
_wcsicoll_l
_wcslwr
_wcslwr_l
_wcslwr_s
_wcslwr_s_l
_wcsncoll
_wcsncoll_l
_wcsnicmp
_wcsnicmp_l
_wcsnicoll
_wcsnicoll_l
_wcsnset
_wcsnset_s
_wcsrev
_wcsset
_wcsset_s
_wcstod_l
_wcstof_l
_wcstoi64
_wcstoi64_l
_wcstoimax_l
_wcstol_l
_wcstold_l
_wcstoll_l
_wcstombs_l
_wcstombs_s_l
_wcstoui64
_wcstoui64_l
_wcstoul_l
_wcstoull_l
_wcstoumax_l
_wcsupr
_wcsupr_l
_wcsupr_s
_wcsupr_s_l
_wcsxfrm_l
_wctime32
_wctime32_s
_wctime64
_wctime64_s
_wctomb_l
_wctomb_s_l
_wctype
_wdupenv_s
_wexecl
_wexecle
_wexeclp
_wexeclpe
_wexecv
_wexecve
_wexecvp
_wexecvpe
_wfdopen
_wfindfirst32
_wfindfirst32i64
_wfindfirst64
_wfindfirst64i32
_wfindnext32
_wfindnext32i64
_wfindnext64
_wfindnext64i32
_wfopen
_wfopen_s
_wfreopen
_wfreopen_s
_wfsopen
_wfullpath
_wgetcwd
_wgetdcwd
_wgetenv
_wgetenv_s
_wmakepath
_wmakepath_s
_wmkdir
_wmktemp
_wmktemp_s
_wopen
_wperror
_wpopen
_wputenv
_wputenv_s
_wremove
_wrename
_write
_wrmdir
_wsearchenv
_wsearchenv_s
_wsetlocale
_wsopen
_wsopen_dispatch
_wsopen_s
_wspawnl
_wspawnle
_wspawnlp
_wspawnlpe
_wspawnv
_wspawnve
_wspawnvp
_wspawnvpe
_wsplitpath
_wsplitpath_s
_wstat32
_wstat32i64
_wstat64
_wstat64i32
_wstrdate
_wstrdate_s
_wstrtime
_wstrtime_s
_wsystem
_wtempnam
_wtmpnam
_wtmpnam_s
_wtof
_wtof_l
_wtoi
_wtoi64
_wtoi64_l
_wtoi_l
_wtol
_wtol_l
_wtoll
_wtoll_l
_wunlink
_wutime32
_wutime64
_y0
_y1
_yn
abort
abs
acos
acosf
acosh
acoshf
acoshl
asctime
asctime_s
asin
asinf
asinh
asinhf
asinhl
atan
atan2
atan2f
atanf
atanh
atanhf
atanhl
atof
atoi
atol
atoll
bsearch
bsearch_s
btowc
c16rtomb
c32rtomb
cabs
cabsf
cabsl
cacos
cacosf
cacosh
cacoshf
cacoshl
cacosl
calloc
carg
cargf
cargl
casin
casinf
casinh
casinhf
casinhl
casinl
catan
catanf
catanh
catanhf
catanhl
catanl
cbrt
cbrtf
cbrtl
ccos
ccosf
ccosh
ccoshf
ccoshl
ccosl
ceil
ceilf
cexp
cexpf
cexpl
cimag
cimagf
cimagl
clearerr
clearerr_s
clock
clog
clog10
clog10f
clog10l
clogf
clogl
conj
conjf
conjl
copysign
copysignf
copysignl
cos
cosf
cosh
coshf
cpow
cpowf
cpowl
cproj
cprojf
cprojl
creal
crealf
creall
csin
csinf
csinh
csinhf
csinhl
csinl
csqrt
csqrtf
csqrtl
ctan
ctanf
ctanh
ctanhf
ctanhl
ctanl
div
erf
erfc
erfcf
erfcl
erff
erfl
exit
exp
exp2
exp2f
exp2l
expf
expm1
expm1f
expm1l
fabs
fclose
fdim
fdimf
fdiml
feclearexcept
fegetenv
fegetexceptflag
fegetround
feholdexcept
feof
ferror
fesetenv
fesetexceptflag
fesetround
fetestexcept
fflush
fgetc
fgetpos
fgets
fgetwc
fgetws
floor
floorf
fma
fmaf
fmal
fmax
fmaxf
fmaxl
fmin
fminf
fminl
fmod
fmodf
fopen
fopen_s
fputc
fputs
fputwc
fputws
fread
fread_s
free
freopen
freopen_s
frexp
fseek
fsetpos
ftell
fwrite
getc
getchar
getenv
getenv_s
gets
gets_s
getwc
getwchar
hypot
ilogb
ilogbf
ilogbl
imaxabs
imaxdiv
is_wctype
isalnum
isalpha
isblank
iscntrl
isdigit
isgraph
isleadbyte
islower
isprint
ispunct
isspace
isupper
iswalnum
iswalpha
iswascii
iswblank
iswcntrl
iswctype
iswdigit
iswgraph
iswlower
iswprint
iswpunct
iswspace
iswupper
iswxdigit
isxdigit
labs
ldexp
ldiv
lgamma
lgammaf
lgammal
llabs
lldiv
llrint
llrintf
llrintl
llround
llroundf
llroundl
localeconv
log
log10
log10f
log1p
log1pf
log1pl
log2
log2f
log2l
logb
logbf
logbl
logf
longjmp
lrint
lrintf
lrintl
lround
lroundf
lroundl
malloc
mblen
mbrlen
mbrtoc16
mbrtoc32
mbrtowc
mbsrtowcs
mbsrtowcs_s
mbstowcs
mbstowcs_s
mbtowc
memchr
memcmp
memcpy
memcpy_s
memmove
memmove_s
memset
modf
modff
nan
nanf
nanl
nearbyint
nearbyintf
nearbyintl
nextafter
nextafterf
nextafterl
nexttoward
nexttowardf
nexttowardl
norm
normf
norml
perror
pow
powf
putc
putchar
puts
putwc
putwchar
qsort
qsort_s
quick_exit
raise
rand
rand_s
realloc
remainder
remainderf
remainderl
remove
remquo
remquof
remquol
rename
rewind
rint
rintf
rintl
round
roundf
roundl
scalbln
scalblnf
scalblnl
scalbn
scalbnf
scalbnl
set_terminate
set_unexpected
setbuf
setjmp
setlocale
setvbuf
signal
sin
sinf
sinh
sinhf
sqrt
sqrtf
srand
strcat
strcat_s
strchr
strcmp
strcoll
strcpy
strcpy_s
strcspn
strerror
strerror_s
strftime
strlen
strncat
strncat_s
strncmp
strncpy
strncpy_s
strnlen
strpbrk
strrchr
strspn
strstr
strtod
strtof
strtoimax
strtok
strtok_s
strtol
strtold
strtoll
strtoul
strtoull
strtoumax
strxfrm
system
tan
tanf
tanh
tanhf
terminate
tgamma
tgammaf
tgammal
tmpfile
tmpfile_s
tmpnam
tmpnam_s
tolower
toupper
towctrans
towlower
towupper
trunc
truncf
truncl
unexpected
ungetc
ungetwc
wcrtomb
wcrtomb_s
wcscat
wcscat_s
wcschr
wcscmp
wcscoll
wcscpy
wcscpy_s
wcscspn
wcsftime
wcslen
wcsncat
wcsncat_s
wcsncmp
wcsncpy
wcsncpy_s
wcsnlen
wcspbrk
wcsrchr
wcsrtombs
wcsrtombs_s
wcsspn
wcsstr
wcstod
wcstof
wcstoimax
wcstok
wcstok_s
wcstol
wcstold
wcstoll
wcstombs
wcstombs_s
wcstoul
wcstoull
wcstoumax
wcsxfrm
wctob
wctomb
wctomb_s
wctrans
wctype
wmemcpy_s
wmemmove_s


EXPORTS ; sed -rn 's/^PUBLIC[[:blank:]]+(\?call@\?\$wrapped_invoker@[^?]+\?([[:alnum:]_]+).*$)/_o_\2 = \1/p' oswrappers.asm

_o__Getdays = ?call@?$wrapped_invoker@P6APEADXZ$1?_Getdays@@YAPEADXZ@@SAPEADXZ ; wrapped_invoker<char * (__cdecl*)(void),&_Getdays>::call
_o__Getmonths = ?call@?$wrapped_invoker@P6APEADXZ$1?_Getmonths@@YAPEADXZ@@SAPEADXZ ; wrapped_invoker<char * (__cdecl*)(void),&_Getmonths>::call
_o__Gettnames = ?call@?$wrapped_invoker@P6APEAXXZ$1?_Gettnames@@YAPEAXXZ@@SAPEAXXZ ; wrapped_invoker<void * (__cdecl*)(void),&_Gettnames>::call
_o__Strftime = ?call@?$wrapped_invoker@P6A_KPEAD_KPEBDPEBUtm@@PEAX@Z$1?_Strftime@@YA_K01234@Z@@SA_KPEAD_KPEBDPEBUtm@@PEAX@Z ; wrapped_invoker<unsigned __int64 (__cdecl*)(char *,unsigned __int64,char const *,tm const *,void *),&_Strftime>::call
_o__W_Getdays = ?call@?$wrapped_invoker@P6APEA_WXZ$1?_W_Getdays@@YAPEA_WXZ@@SAPEA_WXZ ; wrapped_invoker<wchar_t * (__cdecl*)(void),&_W_Getdays>::call
_o__W_Getmonths = ?call@?$wrapped_invoker@P6APEA_WXZ$1?_W_Getmonths@@YAPEA_WXZ@@SAPEA_WXZ ; wrapped_invoker<wchar_t * (__cdecl*)(void),&_W_Getmonths>::call
_o__W_Gettnames = ?call@?$wrapped_invoker@P6APEAXXZ$1?_W_Gettnames@@YAPEAXXZ@@SAPEAXXZ ; wrapped_invoker<void * (__cdecl*)(void),&_W_Gettnames>::call
_o__Wcsftime = ?call@?$wrapped_invoker@P6A_KPEA_W_KPEB_WPEBUtm@@PEAX@Z$1?_Wcsftime@@YA_K01234@Z@@SA_KPEA_W_KPEB_WPEBUtm@@PEAX@Z ; wrapped_invoker<unsigned __int64 (__cdecl*)(wchar_t *,unsigned __int64,wchar_t const *,tm const *,void *),&_Wcsftime>::call
_o____lc_codepage_func = ?call@?$wrapped_invoker@P6AIXZ$1?___lc_codepage_func@@YAIXZ@@SAIXZ ; wrapped_invoker<unsigned int (__cdecl*)(void),&___lc_codepage_func>::call
_o____lc_collate_cp_func = ?call@?$wrapped_invoker@P6AIXZ$1?___lc_collate_cp_func@@YAIXZ@@SAIXZ ; wrapped_invoker<unsigned int (__cdecl*)(void),&___lc_collate_cp_func>::call
_o____lc_locale_name_func = ?call@?$wrapped_invoker@P6APEAPEA_WXZ$1?___lc_locale_name_func@@YAPEAPEA_WXZ@@SAPEAPEA_WXZ ; wrapped_invoker<wchar_t * * (__cdecl*)(void),&___lc_locale_name_func>::call
_o____mb_cur_max_func = ?call@?$wrapped_invoker@P6AHXZ$1?___mb_cur_max_func@@YAHXZ@@SAHXZ ; wrapped_invoker<int (__cdecl*)(void),&___mb_cur_max_func>::call
_o___acrt_iob_func = ?call@?$wrapped_invoker@P6APEAU_iobuf@@I@Z$1?__acrt_iob_func@@YAPEAU1@I@Z@@SAPEAU_iobuf@@I@Z ; wrapped_invoker<_iobuf * (__cdecl*)(unsigned int),&__acrt_iob_func>::call
_o___conio_common_vcprintf = ?call@?$wrapped_invoker@P6AH_KPEBDPEAU__crt_locale_pointers@@PEAD@Z$1?__conio_common_vcprintf@@YAH0123@Z@@SAH_KPEBDPEAU__crt_locale_pointers@@PEAD@Z ; wrapped_invoker<int (__cdecl*)(unsigned __int64,char const *,__crt_locale_pointers *,char *),&__conio_common_vcprintf>::call
_o___conio_common_vcprintf_p = ?call@?$wrapped_invoker@P6AH_KPEBDPEAU__crt_locale_pointers@@PEAD@Z$1?__conio_common_vcprintf_p@@YAH0123@Z@@SAH_KPEBDPEAU__crt_locale_pointers@@PEAD@Z ; wrapped_invoker<int (__cdecl*)(unsigned __int64,char const *,__crt_locale_pointers *,char *),&__conio_common_vcprintf_p>::call
_o___conio_common_vcprintf_s = ?call@?$wrapped_invoker@P6AH_KPEBDPEAU__crt_locale_pointers@@PEAD@Z$1?__conio_common_vcprintf_s@@YAH0123@Z@@SAH_KPEBDPEAU__crt_locale_pointers@@PEAD@Z ; wrapped_invoker<int (__cdecl*)(unsigned __int64,char const *,__crt_locale_pointers *,char *),&__conio_common_vcprintf_s>::call
_o___conio_common_vcscanf = ?call@?$wrapped_invoker@P6AH_KPEBDPEAU__crt_locale_pointers@@PEAD@Z$1?__conio_common_vcscanf@@YAH0123@Z@@SAH_KPEBDPEAU__crt_locale_pointers@@PEAD@Z ; wrapped_invoker<int (__cdecl*)(unsigned __int64,char const *,__crt_locale_pointers *,char *),&__conio_common_vcscanf>::call
_o___conio_common_vcwprintf = ?call@?$wrapped_invoker@P6AH_KPEB_WPEAU__crt_locale_pointers@@PEAD@Z$1?__conio_common_vcwprintf@@YAH0123@Z@@SAH_KPEB_WPEAU__crt_locale_pointers@@PEAD@Z ; wrapped_invoker<int (__cdecl*)(unsigned __int64,wchar_t const *,__crt_locale_pointers *,char *),&__conio_common_vcwprintf>::call
_o___conio_common_vcwprintf_p = ?call@?$wrapped_invoker@P6AH_KPEB_WPEAU__crt_locale_pointers@@PEAD@Z$1?__conio_common_vcwprintf_p@@YAH0123@Z@@SAH_KPEB_WPEAU__crt_locale_pointers@@PEAD@Z ; wrapped_invoker<int (__cdecl*)(unsigned __int64,wchar_t const *,__crt_locale_pointers *,char *),&__conio_common_vcwprintf_p>::call
_o___conio_common_vcwprintf_s = ?call@?$wrapped_invoker@P6AH_KPEB_WPEAU__crt_locale_pointers@@PEAD@Z$1?__conio_common_vcwprintf_s@@YAH0123@Z@@SAH_KPEB_WPEAU__crt_locale_pointers@@PEAD@Z ; wrapped_invoker<int (__cdecl*)(unsigned __int64,wchar_t const *,__crt_locale_pointers *,char *),&__conio_common_vcwprintf_s>::call
_o___conio_common_vcwscanf = ?call@?$wrapped_invoker@P6AH_KPEB_WPEAU__crt_locale_pointers@@PEAD@Z$1?__conio_common_vcwscanf@@YAH0123@Z@@SAH_KPEB_WPEAU__crt_locale_pointers@@PEAD@Z ; wrapped_invoker<int (__cdecl*)(unsigned __int64,wchar_t const *,__crt_locale_pointers *,char *),&__conio_common_vcwscanf>::call
_o___daylight = ?call@?$wrapped_invoker@P6APEAHXZ$1?__daylight@@YAPEAHXZ@@SAPEAHXZ ; wrapped_invoker<int * (__cdecl*)(void),&__daylight>::call
_o___dstbias = ?call@?$wrapped_invoker@P6APEAJXZ$1?__dstbias@@YAPEAJXZ@@SAPEAJXZ ; wrapped_invoker<long * (__cdecl*)(void),&__dstbias>::call
_o___fpe_flt_rounds = ?call@?$wrapped_invoker@P6AHXZ$1?__fpe_flt_rounds@@YAHXZ@@SAHXZ ; wrapped_invoker<int (__cdecl*)(void),&__fpe_flt_rounds>::call
_o___p___argc = ?call@?$wrapped_invoker@P6APEAHXZ$1?__p___argc@@YAPEAHXZ@@SAPEAHXZ ; wrapped_invoker<int * (__cdecl*)(void),&__p___argc>::call
_o___p___argv = ?call@?$wrapped_invoker@P6APEAPEAPEADXZ$1?__p___argv@@YAPEAPEAPEADXZ@@SAPEAPEAPEADXZ ; wrapped_invoker<char * * * (__cdecl*)(void),&__p___argv>::call
_o___p___wargv = ?call@?$wrapped_invoker@P6APEAPEAPEA_WXZ$1?__p___wargv@@YAPEAPEAPEA_WXZ@@SAPEAPEAPEA_WXZ ; wrapped_invoker<wchar_t * * * (__cdecl*)(void),&__p___wargv>::call
_o___p__acmdln = ?call@?$wrapped_invoker@P6APEAPEADXZ$1?__p__acmdln@@YAPEAPEADXZ@@SAPEAPEADXZ ; wrapped_invoker<char * * (__cdecl*)(void),&__p__acmdln>::call
_o___p__commode = ?call@?$wrapped_invoker@P6APEAHXZ$1?__p__commode@@YAPEAHXZ@@SAPEAHXZ ; wrapped_invoker<int * (__cdecl*)(void),&__p__commode>::call
_o___p__environ = ?call@?$wrapped_invoker@P6APEAPEAPEADXZ$1?__p__environ@@YAPEAPEAPEADXZ@@SAPEAPEAPEADXZ ; wrapped_invoker<char * * * (__cdecl*)(void),&__p__environ>::call
_o___p__fmode = ?call@?$wrapped_invoker@P6APEAHXZ$1?__p__fmode@@YAPEAHXZ@@SAPEAHXZ ; wrapped_invoker<int * (__cdecl*)(void),&__p__fmode>::call
_o___p__mbcasemap = ?call@?$wrapped_invoker@P6APEAEXZ$1?__p__mbcasemap@@YAPEAEXZ@@SAPEAEXZ ; wrapped_invoker<unsigned char * (__cdecl*)(void),&__p__mbcasemap>::call
_o___p__mbctype = ?call@?$wrapped_invoker@P6APEAEXZ$1?__p__mbctype@@YAPEAEXZ@@SAPEAEXZ ; wrapped_invoker<unsigned char * (__cdecl*)(void),&__p__mbctype>::call
_o___p__pgmptr = ?call@?$wrapped_invoker@P6APEAPEADXZ$1?__p__pgmptr@@YAPEAPEADXZ@@SAPEAPEADXZ ; wrapped_invoker<char * * (__cdecl*)(void),&__p__pgmptr>::call
_o___p__wcmdln = ?call@?$wrapped_invoker@P6APEAPEA_WXZ$1?__p__wcmdln@@YAPEAPEA_WXZ@@SAPEAPEA_WXZ ; wrapped_invoker<wchar_t * * (__cdecl*)(void),&__p__wcmdln>::call
_o___p__wenviron = ?call@?$wrapped_invoker@P6APEAPEAPEA_WXZ$1?__p__wenviron@@YAPEAPEAPEA_WXZ@@SAPEAPEAPEA_WXZ ; wrapped_invoker<wchar_t * * * (__cdecl*)(void),&__p__wenviron>::call
_o___p__wpgmptr = ?call@?$wrapped_invoker@P6APEAPEA_WXZ$1?__p__wpgmptr@@YAPEAPEA_WXZ@@SAPEAPEA_WXZ ; wrapped_invoker<wchar_t * * (__cdecl*)(void),&__p__wpgmptr>::call
_o___pctype_func = ?call@?$wrapped_invoker@P6APEBGXZ$1?__pctype_func@@YAPEBGXZ@@SAPEBGXZ ; wrapped_invoker<unsigned short const * (__cdecl*)(void),&__pctype_func>::call
_o___pwctype_func = ?call@?$wrapped_invoker@P6APEBGXZ$1?__pwctype_func@@YAPEBGXZ@@SAPEBGXZ ; wrapped_invoker<unsigned short const * (__cdecl*)(void),&__pwctype_func>::call
_o___std_exception_copy = ?call@?$wrapped_invoker@P6AXPEBU__std_exception_data@@PEAU1@@Z$1?__std_exception_copy@@YAX01@Z@@SAXPEBU__std_exception_data@@PEAU2@@Z ; wrapped_invoker<void (__cdecl*)(__std_exception_data const *,__std_exception_data *),&__std_exception_copy>::call
_o___std_exception_destroy = ?call@?$wrapped_invoker@P6AXPEAU__std_exception_data@@@Z$1?__std_exception_destroy@@YAX0@Z@@SAXPEAU__std_exception_data@@@Z ; wrapped_invoker<void (__cdecl*)(__std_exception_data *),&__std_exception_destroy>::call
_o___std_type_info_destroy_list = ?call@?$wrapped_invoker@P6AXPEAU__type_info_node@@@Z$1?__std_type_info_destroy_list@@YAX0@Z@@SAXPEAU__type_info_node@@@Z ; wrapped_invoker<void (__cdecl*)(__type_info_node *),&__std_type_info_destroy_list>::call
_o___std_type_info_name = ?call@?$wrapped_invoker@P6APEBDPEAU__std_type_info_data@@PEAU__type_info_node@@@Z$1?__std_type_info_name@@YAPEBD01@Z@@SAPEBDPEAU__std_type_info_data@@PEAU__type_info_node@@@Z ; wrapped_invoker<char const * (__cdecl*)(__std_type_info_data *,__type_info_node *),&__std_type_info_name>::call
_o___stdio_common_vfprintf = ?call@?$wrapped_invoker@P6AH_KPEAU_iobuf@@PEBDPEAU__crt_locale_pointers@@PEAD@Z$1?__stdio_common_vfprintf@@YAH01234@Z@@SAH_KPEAU_iobuf@@PEBDPEAU__crt_locale_pointers@@PEAD@Z ; wrapped_invoker<int (__cdecl*)(unsigned __int64,_iobuf *,char const *,__crt_locale_pointers *,char *),&__stdio_common_vfprintf>::call
_o___stdio_common_vfprintf_p = ?call@?$wrapped_invoker@P6AH_KPEAU_iobuf@@PEBDPEAU__crt_locale_pointers@@PEAD@Z$1?__stdio_common_vfprintf_p@@YAH01234@Z@@SAH_KPEAU_iobuf@@PEBDPEAU__crt_locale_pointers@@PEAD@Z ; wrapped_invoker<int (__cdecl*)(unsigned __int64,_iobuf *,char const *,__crt_locale_pointers *,char *),&__stdio_common_vfprintf_p>::call
_o___stdio_common_vfprintf_s = ?call@?$wrapped_invoker@P6AH_KPEAU_iobuf@@PEBDPEAU__crt_locale_pointers@@PEAD@Z$1?__stdio_common_vfprintf_s@@YAH01234@Z@@SAH_KPEAU_iobuf@@PEBDPEAU__crt_locale_pointers@@PEAD@Z ; wrapped_invoker<int (__cdecl*)(unsigned __int64,_iobuf *,char const *,__crt_locale_pointers *,char *),&__stdio_common_vfprintf_s>::call
_o___stdio_common_vfscanf = ?call@?$wrapped_invoker@P6AH_KPEAU_iobuf@@PEBDPEAU__crt_locale_pointers@@PEAD@Z$1?__stdio_common_vfscanf@@YAH01234@Z@@SAH_KPEAU_iobuf@@PEBDPEAU__crt_locale_pointers@@PEAD@Z ; wrapped_invoker<int (__cdecl*)(unsigned __int64,_iobuf *,char const *,__crt_locale_pointers *,char *),&__stdio_common_vfscanf>::call
_o___stdio_common_vfwprintf = ?call@?$wrapped_invoker@P6AH_KPEAU_iobuf@@PEB_WPEAU__crt_locale_pointers@@PEAD@Z$1?__stdio_common_vfwprintf@@YAH01234@Z@@SAH_KPEAU_iobuf@@PEB_WPEAU__crt_locale_pointers@@PEAD@Z ; wrapped_invoker<int (__cdecl*)(unsigned __int64,_iobuf *,wchar_t const *,__crt_locale_pointers *,char *),&__stdio_common_vfwprintf>::call
_o___stdio_common_vfwprintf_p = ?call@?$wrapped_invoker@P6AH_KPEAU_iobuf@@PEB_WPEAU__crt_locale_pointers@@PEAD@Z$1?__stdio_common_vfwprintf_p@@YAH01234@Z@@SAH_KPEAU_iobuf@@PEB_WPEAU__crt_locale_pointers@@PEAD@Z ; wrapped_invoker<int (__cdecl*)(unsigned __int64,_iobuf *,wchar_t const *,__crt_locale_pointers *,char *),&__stdio_common_vfwprintf_p>::call
_o___stdio_common_vfwprintf_s = ?call@?$wrapped_invoker@P6AH_KPEAU_iobuf@@PEB_WPEAU__crt_locale_pointers@@PEAD@Z$1?__stdio_common_vfwprintf_s@@YAH01234@Z@@SAH_KPEAU_iobuf@@PEB_WPEAU__crt_locale_pointers@@PEAD@Z ; wrapped_invoker<int (__cdecl*)(unsigned __int64,_iobuf *,wchar_t const *,__crt_locale_pointers *,char *),&__stdio_common_vfwprintf_s>::call
_o___stdio_common_vfwscanf = ?call@?$wrapped_invoker@P6AH_KPEAU_iobuf@@PEB_WPEAU__crt_locale_pointers@@PEAD@Z$1?__stdio_common_vfwscanf@@YAH01234@Z@@SAH_KPEAU_iobuf@@PEB_WPEAU__crt_locale_pointers@@PEAD@Z ; wrapped_invoker<int (__cdecl*)(unsigned __int64,_iobuf *,wchar_t const *,__crt_locale_pointers *,char *),&__stdio_common_vfwscanf>::call
_o___stdio_common_vsnprintf_s = ?call@?$wrapped_invoker@P6AH_KPEAD00PEBDPEAU__crt_locale_pointers@@1@Z$1?__stdio_common_vsnprintf_s@@YAH0100231@Z@@SAH_KPEAD00PEBDPEAU__crt_locale_pointers@@1@Z ; wrapped_invoker<int (__cdecl*)(unsigned __int64,char *,unsigned __int64,unsigned __int64,char const *,__crt_locale_pointers *,char *),&__stdio_common_vsnprintf_s>::call
_o___stdio_common_vsnwprintf_s = ?call@?$wrapped_invoker@P6AH_KPEA_W00PEB_WPEAU__crt_locale_pointers@@PEAD@Z$1?__stdio_common_vsnwprintf_s@@YAH0100234@Z@@SAH_KPEA_W00PEB_WPEAU__crt_locale_pointers@@PEAD@Z ; wrapped_invoker<int (__cdecl*)(unsigned __int64,wchar_t *,unsigned __int64,unsigned __int64,wchar_t const *,__crt_locale_pointers *,char *),&__stdio_common_vsnwprintf_s>::call
_o___stdio_common_vsprintf = ?call@?$wrapped_invoker@P6AH_KPEAD0PEBDPEAU__crt_locale_pointers@@1@Z$1?__stdio_common_vsprintf@@YAH010231@Z@@SAH_KPEAD0PEBDPEAU__crt_locale_pointers@@1@Z ; wrapped_invoker<int (__cdecl*)(unsigned __int64,char *,unsigned __int64,char const *,__crt_locale_pointers *,char *),&__stdio_common_vsprintf>::call
_o___stdio_common_vsprintf_p = ?call@?$wrapped_invoker@P6AH_KPEAD0PEBDPEAU__crt_locale_pointers@@1@Z$1?__stdio_common_vsprintf_p@@YAH010231@Z@@SAH_KPEAD0PEBDPEAU__crt_locale_pointers@@1@Z ; wrapped_invoker<int (__cdecl*)(unsigned __int64,char *,unsigned __int64,char const *,__crt_locale_pointers *,char *),&__stdio_common_vsprintf_p>::call
_o___stdio_common_vsprintf_s = ?call@?$wrapped_invoker@P6AH_KPEAD0PEBDPEAU__crt_locale_pointers@@1@Z$1?__stdio_common_vsprintf_s@@YAH010231@Z@@SAH_KPEAD0PEBDPEAU__crt_locale_pointers@@1@Z ; wrapped_invoker<int (__cdecl*)(unsigned __int64,char *,unsigned __int64,char const *,__crt_locale_pointers *,char *),&__stdio_common_vsprintf_s>::call
_o___stdio_common_vsscanf = ?call@?$wrapped_invoker@P6AH_KPEBD01PEAU__crt_locale_pointers@@PEAD@Z$1?__stdio_common_vsscanf@@YAH010123@Z@@SAH_KPEBD01PEAU__crt_locale_pointers@@PEAD@Z ; wrapped_invoker<int (__cdecl*)(unsigned __int64,char const *,unsigned __int64,char const *,__crt_locale_pointers *,char *),&__stdio_common_vsscanf>::call
_o___stdio_common_vswprintf = ?call@?$wrapped_invoker@P6AH_KPEA_W0PEB_WPEAU__crt_locale_pointers@@PEAD@Z$1?__stdio_common_vswprintf@@YAH010234@Z@@SAH_KPEA_W0PEB_WPEAU__crt_locale_pointers@@PEAD@Z ; wrapped_invoker<int (__cdecl*)(unsigned __int64,wchar_t *,unsigned __int64,wchar_t const *,__crt_locale_pointers *,char *),&__stdio_common_vswprintf>::call
_o___stdio_common_vswprintf_p = ?call@?$wrapped_invoker@P6AH_KPEA_W0PEB_WPEAU__crt_locale_pointers@@PEAD@Z$1?__stdio_common_vswprintf_p@@YAH010234@Z@@SAH_KPEA_W0PEB_WPEAU__crt_locale_pointers@@PEAD@Z ; wrapped_invoker<int (__cdecl*)(unsigned __int64,wchar_t *,unsigned __int64,wchar_t const *,__crt_locale_pointers *,char *),&__stdio_common_vswprintf_p>::call
_o___stdio_common_vswprintf_s = ?call@?$wrapped_invoker@P6AH_KPEA_W0PEB_WPEAU__crt_locale_pointers@@PEAD@Z$1?__stdio_common_vswprintf_s@@YAH010234@Z@@SAH_KPEA_W0PEB_WPEAU__crt_locale_pointers@@PEAD@Z ; wrapped_invoker<int (__cdecl*)(unsigned __int64,wchar_t *,unsigned __int64,wchar_t const *,__crt_locale_pointers *,char *),&__stdio_common_vswprintf_s>::call
_o___stdio_common_vswscanf = ?call@?$wrapped_invoker@P6AH_KPEB_W01PEAU__crt_locale_pointers@@PEAD@Z$1?__stdio_common_vswscanf@@YAH010123@Z@@SAH_KPEB_W01PEAU__crt_locale_pointers@@PEAD@Z ; wrapped_invoker<int (__cdecl*)(unsigned __int64,wchar_t const *,unsigned __int64,wchar_t const *,__crt_locale_pointers *,char *),&__stdio_common_vswscanf>::call
_o___timezone = ?call@?$wrapped_invoker@P6APEAJXZ$1?__timezone@@YAPEAJXZ@@SAPEAJXZ ; wrapped_invoker<long * (__cdecl*)(void),&__timezone>::call
_o___tzname = ?call@?$wrapped_invoker@P6APEAPEADXZ$1?__tzname@@YAPEAPEADXZ@@SAPEAPEADXZ ; wrapped_invoker<char * * (__cdecl*)(void),&__tzname>::call
_o___wcserror = ?call@?$wrapped_invoker@P6APEA_WPEB_W@Z$1?__wcserror@@YAPEA_W0@Z@@SAPEA_WPEB_W@Z ; wrapped_invoker<wchar_t * (__cdecl*)(wchar_t const *),&__wcserror>::call
_o__access = ?call@?$wrapped_invoker@P6AHPEBDH@Z$1?_access@@YAH0H@Z@@SAHPEBDH@Z ; wrapped_invoker<int (__cdecl*)(char const *,int),&_access>::call
_o__access_s = ?call@?$wrapped_invoker@P6AHPEBDH@Z$1?_access_s@@YAH0H@Z@@SAHPEBDH@Z ; wrapped_invoker<int (__cdecl*)(char const *,int),&_access_s>::call
_o__aligned_free = ?call@?$wrapped_invoker@P6AXPEAX@Z$1?_aligned_free@@YAX0@Z@@SAXPEAX@Z ; wrapped_invoker<void (__cdecl*)(void *),&_aligned_free>::call
_o__aligned_malloc = ?call@?$wrapped_invoker@P6APEAX_K0@Z$1?_aligned_malloc@@YAPEAX00@Z@@SAPEAX_K0@Z ; wrapped_invoker<void * (__cdecl*)(unsigned __int64,unsigned __int64),&_aligned_malloc>::call
_o__aligned_msize = ?call@?$wrapped_invoker@P6A_KPEAX_K1@Z$1?_aligned_msize@@YA_K011@Z@@SA_KPEAX_K1@Z ; wrapped_invoker<unsigned __int64 (__cdecl*)(void *,unsigned __int64,unsigned __int64),&_aligned_msize>::call
_o__aligned_offset_malloc = ?call@?$wrapped_invoker@P6APEAX_K00@Z$1?_aligned_offset_malloc@@YAPEAX000@Z@@SAPEAX_K00@Z ; wrapped_invoker<void * (__cdecl*)(unsigned __int64,unsigned __int64,unsigned __int64),&_aligned_offset_malloc>::call
_o__aligned_offset_realloc = ?call@?$wrapped_invoker@P6APEAXPEAX_K11@Z$1?_aligned_offset_realloc@@YAPEAX0111@Z@@SAPEAXPEAX_K11@Z ; wrapped_invoker<void * (__cdecl*)(void *,unsigned __int64,unsigned __int64,unsigned __int64),&_aligned_offset_realloc>::call
_o__aligned_offset_recalloc = ?call@?$wrapped_invoker@P6APEAXPEAX_K111@Z$1?_aligned_offset_recalloc@@YAPEAX01111@Z@@SAPEAXPEAX_K111@Z ; wrapped_invoker<void * (__cdecl*)(void *,unsigned __int64,unsigned __int64,unsigned __int64,unsigned __int64),&_aligned_offset_recalloc>::call
_o__aligned_realloc = ?call@?$wrapped_invoker@P6APEAXPEAX_K1@Z$1?_aligned_realloc@@YAPEAX011@Z@@SAPEAXPEAX_K1@Z ; wrapped_invoker<void * (__cdecl*)(void *,unsigned __int64,unsigned __int64),&_aligned_realloc>::call
_o__aligned_recalloc = ?call@?$wrapped_invoker@P6APEAXPEAX_K11@Z$1?_aligned_recalloc@@YAPEAX0111@Z@@SAPEAXPEAX_K11@Z ; wrapped_invoker<void * (__cdecl*)(void *,unsigned __int64,unsigned __int64,unsigned __int64),&_aligned_recalloc>::call
_o__atodbl = ?call@?$wrapped_invoker@P6AHPEAU_CRT_DOUBLE@@PEAD@Z$1?_atodbl@@YAH01@Z@@SAHPEAU_CRT_DOUBLE@@PEAD@Z ; wrapped_invoker<int (__cdecl*)(_CRT_DOUBLE *,char *),&_atodbl>::call
_o__atodbl_l = ?call@?$wrapped_invoker@P6AHPEAU_CRT_DOUBLE@@PEADPEAU__crt_locale_pointers@@@Z$1?_atodbl_l@@YAH012@Z@@SAHPEAU_CRT_DOUBLE@@PEADPEAU__crt_locale_pointers@@@Z ; wrapped_invoker<int (__cdecl*)(_CRT_DOUBLE *,char *,__crt_locale_pointers *),&_atodbl_l>::call
_o__atof_l = ?call@?$wrapped_invoker@P6ANPEBDPEAU__crt_locale_pointers@@@Z$1?_atof_l@@YAN01@Z@@SANPEBDPEAU__crt_locale_pointers@@@Z ; wrapped_invoker<double (__cdecl*)(char const *,__crt_locale_pointers *),&_atof_l>::call
_o__atoflt = ?call@?$wrapped_invoker@P6AHPEAU_CRT_FLOAT@@PEBD@Z$1?_atoflt@@YAH01@Z@@SAHPEAU_CRT_FLOAT@@PEBD@Z ; wrapped_invoker<int (__cdecl*)(_CRT_FLOAT *,char const *),&_atoflt>::call
_o__atoflt_l = ?call@?$wrapped_invoker@P6AHPEAU_CRT_FLOAT@@PEBDPEAU__crt_locale_pointers@@@Z$1?_atoflt_l@@YAH012@Z@@SAHPEAU_CRT_FLOAT@@PEBDPEAU__crt_locale_pointers@@@Z ; wrapped_invoker<int (__cdecl*)(_CRT_FLOAT *,char const *,__crt_locale_pointers *),&_atoflt_l>::call
_o__atoi64 = ?call@?$wrapped_invoker@P6A_JPEBD@Z$1?_atoi64@@YA_J0@Z@@SA_JPEBD@Z ; wrapped_invoker<__int64 (__cdecl*)(char const *),&_atoi64>::call
_o__atoi64_l = ?call@?$wrapped_invoker@P6A_JPEBDPEAU__crt_locale_pointers@@@Z$1?_atoi64_l@@YA_J01@Z@@SA_JPEBDPEAU__crt_locale_pointers@@@Z ; wrapped_invoker<__int64 (__cdecl*)(char const *,__crt_locale_pointers *),&_atoi64_l>::call
_o__atoi_l = ?call@?$wrapped_invoker@P6AHPEBDPEAU__crt_locale_pointers@@@Z$1?_atoi_l@@YAH01@Z@@SAHPEBDPEAU__crt_locale_pointers@@@Z ; wrapped_invoker<int (__cdecl*)(char const *,__crt_locale_pointers *),&_atoi_l>::call
_o__atol_l = ?call@?$wrapped_invoker@P6AJPEBDPEAU__crt_locale_pointers@@@Z$1?_atol_l@@YAJ01@Z@@SAJPEBDPEAU__crt_locale_pointers@@@Z ; wrapped_invoker<long (__cdecl*)(char const *,__crt_locale_pointers *),&_atol_l>::call
_o__atoldbl = ?call@?$wrapped_invoker@P6AHPEAU_LDOUBLE@@PEAD@Z$1?_atoldbl@@YAH01@Z@@SAHPEAU_LDOUBLE@@PEAD@Z ; wrapped_invoker<int (__cdecl*)(_LDOUBLE *,char *),&_atoldbl>::call
_o__atoldbl_l = ?call@?$wrapped_invoker@P6AHPEAU_LDOUBLE@@PEADPEAU__crt_locale_pointers@@@Z$1?_atoldbl_l@@YAH012@Z@@SAHPEAU_LDOUBLE@@PEADPEAU__crt_locale_pointers@@@Z ; wrapped_invoker<int (__cdecl*)(_LDOUBLE *,char *,__crt_locale_pointers *),&_atoldbl_l>::call
_o__atoll_l = ?call@?$wrapped_invoker@P6A_JPEBDPEAU__crt_locale_pointers@@@Z$1?_atoll_l@@YA_J01@Z@@SA_JPEBDPEAU__crt_locale_pointers@@@Z ; wrapped_invoker<__int64 (__cdecl*)(char const *,__crt_locale_pointers *),&_atoll_l>::call
_o__beep = ?call@?$wrapped_invoker@P6AXII@Z$1?_beep@@YAXII@Z@@SAXII@Z ; wrapped_invoker<void (__cdecl*)(unsigned int,unsigned int),&_beep>::call
_o__beginthread = ?call@?$wrapped_invoker@P6A_KP6AXPEAX@ZI0@Z$1?_beginthread@@YA_K1I0@Z@@SA_KP6AXPEAX@ZI0@Z ; wrapped_invoker<unsigned __int64 (__cdecl*)(void (__cdecl*)(void *),unsigned int,void *),&_beginthread>::call
_o__beginthreadex = ?call@?$wrapped_invoker@P6A_KPEAXIP6AI0@Z0IPEAI@Z$1?_beginthreadex@@YA_K0I10I2@Z@@SA_KPEAXIP6AI0@Z0IPEAI@Z ; wrapped_invoker<unsigned __int64 (__cdecl*)(void *,unsigned int,unsigned int (__cdecl*)(void *),void *,unsigned int,unsigned int *),&_beginthreadex>::call
_o__cabs = ?call@?$wrapped_invoker@P6ANU_complex@@@Z$1?_cabs@@YAN0@Z@@SANU_complex@@@Z ; wrapped_invoker<double (__cdecl*)(_complex),&_cabs>::call
_o__callnewh = ?call@?$wrapped_invoker@P6AH_K@Z$1?_callnewh@@YAH0@Z@@SAH_K@Z ; wrapped_invoker<int (__cdecl*)(unsigned __int64),&_callnewh>::call
_o__calloc_base = ?call@?$wrapped_invoker@P6APEAX_K0@Z$1?_calloc_base@@YAPEAX00@Z@@SAPEAX_K0@Z ; wrapped_invoker<void * (__cdecl*)(unsigned __int64,unsigned __int64),&_calloc_base>::call
_o__cexit = ?call@?$wrapped_invoker@P6AXXZ$1?_cexit@@YAXXZ@@SAXXZ ; wrapped_invoker<void (__cdecl*)(void),&_cexit>::call
_o__cgets = ?call@?$wrapped_invoker@P6APEADPEAD@Z$1?_cgets@@YAPEAD0@Z@@SAPEADPEAD@Z ; wrapped_invoker<char * (__cdecl*)(char *),&_cgets>::call
_o__cgets_s = ?call@?$wrapped_invoker@P6AHPEAD_KPEA_K@Z$1?_cgets_s@@YAH012@Z@@SAHPEAD_KPEA_K@Z ; wrapped_invoker<int (__cdecl*)(char *,unsigned __int64,unsigned __int64 *),&_cgets_s>::call
_o__cgetws = ?call@?$wrapped_invoker@P6APEA_WPEA_W@Z$1?_cgetws@@YAPEA_W0@Z@@SAPEA_WPEA_W@Z ; wrapped_invoker<wchar_t * (__cdecl*)(wchar_t *),&_cgetws>::call
_o__cgetws_s = ?call@?$wrapped_invoker@P6AHPEA_W_KPEA_K@Z$1?_cgetws_s@@YAH012@Z@@SAHPEA_W_KPEA_K@Z ; wrapped_invoker<int (__cdecl*)(wchar_t *,unsigned __int64,unsigned __int64 *),&_cgetws_s>::call
_o__chdir = ?call@?$wrapped_invoker@P6AHPEBD@Z$1?_chdir@@YAH0@Z@@SAHPEBD@Z ; wrapped_invoker<int (__cdecl*)(char const *),&_chdir>::call
_o__chdrive = ?call@?$wrapped_invoker@P6AHH@Z$1?_chdrive@@YAHH@Z@@SAHH@Z ; wrapped_invoker<int (__cdecl*)(int),&_chdrive>::call
_o__chmod = ?call@?$wrapped_invoker@P6AHPEBDH@Z$1?_chmod@@YAH0H@Z@@SAHPEBDH@Z ; wrapped_invoker<int (__cdecl*)(char const *,int),&_chmod>::call
_o__chsize = ?call@?$wrapped_invoker@P6AHHJ@Z$1?_chsize@@YAHHJ@Z@@SAHHJ@Z ; wrapped_invoker<int (__cdecl*)(int,long),&_chsize>::call
_o__chsize_s = ?call@?$wrapped_invoker@P6AHH_J@Z$1?_chsize_s@@YAHH0@Z@@SAHH_J@Z ; wrapped_invoker<int (__cdecl*)(int,__int64),&_chsize_s>::call
_o__close = ?call@?$wrapped_invoker@P6AHH@Z$1?_close@@YAHH@Z@@SAHH@Z ; wrapped_invoker<int (__cdecl*)(int),&_close>::call
_o__commit = ?call@?$wrapped_invoker@P6AHH@Z$1?_commit@@YAHH@Z@@SAHH@Z ; wrapped_invoker<int (__cdecl*)(int),&_commit>::call
_o__configthreadlocale = ?call@?$wrapped_invoker@P6AHH@Z$1?_configthreadlocale@@YAHH@Z@@SAHH@Z ; wrapped_invoker<int (__cdecl*)(int),&_configthreadlocale>::call
_o__configure_narrow_argv = ?call@?$wrapped_invoker@P6AHW4_crt_argv_mode@@@Z$1?_configure_narrow_argv@@YAH0@Z@@SAHW4_crt_argv_mode@@@Z ; wrapped_invoker<int (__cdecl*)(enum _crt_argv_mode),&_configure_narrow_argv>::call
_o__configure_wide_argv = ?call@?$wrapped_invoker@P6AHW4_crt_argv_mode@@@Z$1?_configure_wide_argv@@YAH0@Z@@SAHW4_crt_argv_mode@@@Z ; wrapped_invoker<int (__cdecl*)(enum _crt_argv_mode),&_configure_wide_argv>::call
_o__controlfp_s = ?call@?$wrapped_invoker@P6AHPEAIII@Z$1?_controlfp_s@@YAH0II@Z@@SAHPEAIII@Z ; wrapped_invoker<int (__cdecl*)(unsigned int *,unsigned int,unsigned int),&_controlfp_s>::call
_o__cputs = ?call@?$wrapped_invoker@P6AHPEBD@Z$1?_cputs@@YAH0@Z@@SAHPEBD@Z ; wrapped_invoker<int (__cdecl*)(char const *),&_cputs>::call
_o__cputws = ?call@?$wrapped_invoker@P6AHPEB_W@Z$1?_cputws@@YAH0@Z@@SAHPEB_W@Z ; wrapped_invoker<int (__cdecl*)(wchar_t const *),&_cputws>::call
_o__creat = ?call@?$wrapped_invoker@P6AHPEBDH@Z$1?_creat@@YAH0H@Z@@SAHPEBDH@Z ; wrapped_invoker<int (__cdecl*)(char const *,int),&_creat>::call
_o__create_locale = ?call@?$wrapped_invoker@P6APEAU__crt_locale_pointers@@HPEBD@Z$1?_create_locale@@YAPEAU1@H0@Z@@SAPEAU__crt_locale_pointers@@HPEBD@Z ; wrapped_invoker<__crt_locale_pointers * (__cdecl*)(int,char const *),&_create_locale>::call
_o__crt_atexit = ?call@?$wrapped_invoker@P6AHP6AXXZ@Z$1?_crt_atexit@@YAH0@Z@@SAHP6AXXZ@Z ; wrapped_invoker<int (__cdecl*)(void (__cdecl*)(void)),&_crt_atexit>::call
_o__ctime32_s = ?call@?$wrapped_invoker@P6AHPEAD_KPEBJ@Z$1?_ctime32_s@@YAH012@Z@@SAHPEAD_KPEBJ@Z ; wrapped_invoker<int (__cdecl*)(char *,unsigned __int64,long const *),&_ctime32_s>::call
_o__ctime64_s = ?call@?$wrapped_invoker@P6AHPEAD_KPEB_J@Z$1?_ctime64_s@@YAH012@Z@@SAHPEAD_KPEB_J@Z ; wrapped_invoker<int (__cdecl*)(char *,unsigned __int64,__int64 const *),&_ctime64_s>::call
_o__cwait = ?call@?$wrapped_invoker@P6A_JPEAH_JH@Z$1?_cwait@@YA_J01H@Z@@SA_JPEAH_JH@Z ; wrapped_invoker<__int64 (__cdecl*)(int *,__int64,int),&_cwait>::call
_o__d_int = ?call@?$wrapped_invoker@P6AFPEANF@Z$1?_d_int@@YAF0F@Z@@SAFPEANF@Z ; wrapped_invoker<short (__cdecl*)(double *,short),&_d_int>::call
_o__dclass = ?call@?$wrapped_invoker@P6AFN@Z$1?_dclass@@YAFN@Z@@SAFN@Z ; wrapped_invoker<short (__cdecl*)(double),&_dclass>::call
_o__difftime32 = ?call@?$wrapped_invoker@P6ANJJ@Z$1?_difftime32@@YANJJ@Z@@SANJJ@Z ; wrapped_invoker<double (__cdecl*)(long,long),&_difftime32>::call
_o__difftime64 = ?call@?$wrapped_invoker@P6AN_J0@Z$1?_difftime64@@YAN00@Z@@SAN_J0@Z ; wrapped_invoker<double (__cdecl*)(__int64,__int64),&_difftime64>::call
_o__dlog = ?call@?$wrapped_invoker@P6ANNH@Z$1?_dlog@@YANNH@Z@@SANNH@Z ; wrapped_invoker<double (__cdecl*)(double,int),&_dlog>::call
_o__dnorm = ?call@?$wrapped_invoker@P6AFPEAG@Z$1?_dnorm@@YAF0@Z@@SAFPEAG@Z ; wrapped_invoker<short (__cdecl*)(unsigned short *),&_dnorm>::call
_o__dpcomp = ?call@?$wrapped_invoker@P6AHNN@Z$1?_dpcomp@@YAHNN@Z@@SAHNN@Z ; wrapped_invoker<int (__cdecl*)(double,double),&_dpcomp>::call
_o__dpoly = ?call@?$wrapped_invoker@P6ANNPEBNH@Z$1?_dpoly@@YANN0H@Z@@SANNPEBNH@Z ; wrapped_invoker<double (__cdecl*)(double,double const *,int),&_dpoly>::call
_o__dscale = ?call@?$wrapped_invoker@P6AFPEANJ@Z$1?_dscale@@YAF0J@Z@@SAFPEANJ@Z ; wrapped_invoker<short (__cdecl*)(double *,long),&_dscale>::call
_o__dsign = ?call@?$wrapped_invoker@P6AHN@Z$1?_dsign@@YAHN@Z@@SAHN@Z ; wrapped_invoker<int (__cdecl*)(double),&_dsign>::call
_o__dsin = ?call@?$wrapped_invoker@P6ANNI@Z$1?_dsin@@YANNI@Z@@SANNI@Z ; wrapped_invoker<double (__cdecl*)(double,unsigned int),&_dsin>::call
_o__dtest = ?call@?$wrapped_invoker@P6AFPEAN@Z$1?_dtest@@YAF0@Z@@SAFPEAN@Z ; wrapped_invoker<short (__cdecl*)(double *),&_dtest>::call
_o__dunscale = ?call@?$wrapped_invoker@P6AFPEAFPEAN@Z$1?_dunscale@@YAF01@Z@@SAFPEAFPEAN@Z ; wrapped_invoker<short (__cdecl*)(short *,double *),&_dunscale>::call
_o__dup = ?call@?$wrapped_invoker@P6AHH@Z$1?_dup@@YAHH@Z@@SAHH@Z ; wrapped_invoker<int (__cdecl*)(int),&_dup>::call
_o__dup2 = ?call@?$wrapped_invoker@P6AHHH@Z$1?_dup2@@YAHHH@Z@@SAHHH@Z ; wrapped_invoker<int (__cdecl*)(int,int),&_dup2>::call
_o__dupenv_s = ?call@?$wrapped_invoker@P6AHPEAPEADPEA_KPEBD@Z$1?_dupenv_s@@YAH012@Z@@SAHPEAPEADPEA_KPEBD@Z ; wrapped_invoker<int (__cdecl*)(char * *,unsigned __int64 *,char const *),&_dupenv_s>::call
_o__ecvt = ?call@?$wrapped_invoker@P6APEADNHPEAH0@Z$1?_ecvt@@YAPEADNH00@Z@@SAPEADNHPEAH0@Z ; wrapped_invoker<char * (__cdecl*)(double,int,int *,int *),&_ecvt>::call
_o__ecvt_s = ?call@?$wrapped_invoker@P6AHPEAD_KNHPEAH2@Z$1?_ecvt_s@@YAH01NH22@Z@@SAHPEAD_KNHPEAH2@Z ; wrapped_invoker<int (__cdecl*)(char *,unsigned __int64,double,int,int *,int *),&_ecvt_s>::call
_o__endthread = ?call@?$wrapped_invoker@P6AXXZ$1?_endthread@@YAXXZ@@SAXXZ ; wrapped_invoker<void (__cdecl*)(void),&_endthread>::call
_o__endthreadex = ?call@?$wrapped_invoker@P6AXI@Z$1?_endthreadex@@YAXI@Z@@SAXI@Z ; wrapped_invoker<void (__cdecl*)(unsigned int),&_endthreadex>::call
_o__eof = ?call@?$wrapped_invoker@P6AHH@Z$1?_eof@@YAHH@Z@@SAHH@Z ; wrapped_invoker<int (__cdecl*)(int),&_eof>::call
_o__errno = ?call@?$wrapped_invoker@P6APEAHXZ$1?_errno@@YAPEAHXZ@@SAPEAHXZ ; wrapped_invoker<int * (__cdecl*)(void),&_errno>::call
_o__except1 = ?call@?$wrapped_invoker@P6AXHHNN_K@Z$1?_except1@@YAXHHNN0@Z@@SAXHHNN_K@Z ; wrapped_invoker<void (__cdecl*)(int,int,double,double,unsigned __int64),&_except1>::call
_o__execute_onexit_table = ?call@?$wrapped_invoker@P6AHPEAU_onexit_table_t@@@Z$1?_execute_onexit_table@@YAH0@Z@@SAHPEAU_onexit_table_t@@@Z ; wrapped_invoker<int (__cdecl*)(_onexit_table_t *),&_execute_onexit_table>::call
_o__execv = ?call@?$wrapped_invoker@P6A_JPEBDPEBQEBD@Z$1?_execv@@YA_J01@Z@@SA_JPEBDPEBQEBD@Z ; wrapped_invoker<__int64 (__cdecl*)(char const *,char const * const *),&_execv>::call
_o__execve = ?call@?$wrapped_invoker@P6A_JPEBDPEBQEBD1@Z$1?_execve@@YA_J011@Z@@SA_JPEBDPEBQEBD1@Z ; wrapped_invoker<__int64 (__cdecl*)(char const *,char const * const *,char const * const *),&_execve>::call
_o__execvp = ?call@?$wrapped_invoker@P6A_JPEBDPEBQEBD@Z$1?_execvp@@YA_J01@Z@@SA_JPEBDPEBQEBD@Z ; wrapped_invoker<__int64 (__cdecl*)(char const *,char const * const *),&_execvp>::call
_o__execvpe = ?call@?$wrapped_invoker@P6A_JPEBDPEBQEBD1@Z$1?_execvpe@@YA_J011@Z@@SA_JPEBDPEBQEBD1@Z ; wrapped_invoker<__int64 (__cdecl*)(char const *,char const * const *,char const * const *),&_execvpe>::call
_o__exit = ?call@?$wrapped_invoker@P6AXH@Z$1?_exit@@YAXH@Z@@SAXH@Z ; wrapped_invoker<void (__cdecl*)(int),&_exit>::call
_o__expand = ?call@?$wrapped_invoker@P6APEAXPEAX_K@Z$1?_expand@@YAPEAX01@Z@@SAPEAXPEAX_K@Z ; wrapped_invoker<void * (__cdecl*)(void *,unsigned __int64),&_expand>::call
_o__fclose_nolock = ?call@?$wrapped_invoker@P6AHPEAU_iobuf@@@Z$1?_fclose_nolock@@YAH0@Z@@SAHPEAU_iobuf@@@Z ; wrapped_invoker<int (__cdecl*)(_iobuf *),&_fclose_nolock>::call
_o__fcloseall = ?call@?$wrapped_invoker@P6AHXZ$1?_fcloseall@@YAHXZ@@SAHXZ ; wrapped_invoker<int (__cdecl*)(void),&_fcloseall>::call
_o__fcvt = ?call@?$wrapped_invoker@P6APEADNHPEAH0@Z$1?_fcvt@@YAPEADNH00@Z@@SAPEADNHPEAH0@Z ; wrapped_invoker<char * (__cdecl*)(double,int,int *,int *),&_fcvt>::call
_o__fcvt_s = ?call@?$wrapped_invoker@P6AHPEAD_KNHPEAH2@Z$1?_fcvt_s@@YAH01NH22@Z@@SAHPEAD_KNHPEAH2@Z ; wrapped_invoker<int (__cdecl*)(char *,unsigned __int64,double,int,int *,int *),&_fcvt_s>::call
_o__fd_int = ?call@?$wrapped_invoker@P6AFPEAMF@Z$1?_fd_int@@YAF0F@Z@@SAFPEAMF@Z ; wrapped_invoker<short (__cdecl*)(float *,short),&_fd_int>::call
_o__fdclass = ?call@?$wrapped_invoker@P6AFM@Z$1?_fdclass@@YAFM@Z@@SAFM@Z ; wrapped_invoker<short (__cdecl*)(float),&_fdclass>::call
_o__fdexp = ?call@?$wrapped_invoker@P6AFPEAMMJ@Z$1?_fdexp@@YAF0MJ@Z@@SAFPEAMMJ@Z ; wrapped_invoker<short (__cdecl*)(float *,float,long),&_fdexp>::call
_o__fdlog = ?call@?$wrapped_invoker@P6AMMH@Z$1?_fdlog@@YAMMH@Z@@SAMMH@Z ; wrapped_invoker<float (__cdecl*)(float,int),&_fdlog>::call
_o__fdopen = ?call@?$wrapped_invoker@P6APEAU_iobuf@@HPEBD@Z$1?_fdopen@@YAPEAU1@H0@Z@@SAPEAU_iobuf@@HPEBD@Z ; wrapped_invoker<_iobuf * (__cdecl*)(int,char const *),&_fdopen>::call
_o__fdpcomp = ?call@?$wrapped_invoker@P6AHMM@Z$1?_fdpcomp@@YAHMM@Z@@SAHMM@Z ; wrapped_invoker<int (__cdecl*)(float,float),&_fdpcomp>::call
_o__fdpoly = ?call@?$wrapped_invoker@P6AMMPEBMH@Z$1?_fdpoly@@YAMM0H@Z@@SAMMPEBMH@Z ; wrapped_invoker<float (__cdecl*)(float,float const *,int),&_fdpoly>::call
_o__fdscale = ?call@?$wrapped_invoker@P6AFPEAMJ@Z$1?_fdscale@@YAF0J@Z@@SAFPEAMJ@Z ; wrapped_invoker<short (__cdecl*)(float *,long),&_fdscale>::call
_o__fdsign = ?call@?$wrapped_invoker@P6AHM@Z$1?_fdsign@@YAHM@Z@@SAHM@Z ; wrapped_invoker<int (__cdecl*)(float),&_fdsign>::call
_o__fdsin = ?call@?$wrapped_invoker@P6AMMI@Z$1?_fdsin@@YAMMI@Z@@SAMMI@Z ; wrapped_invoker<float (__cdecl*)(float,unsigned int),&_fdsin>::call
_o__fflush_nolock = ?call@?$wrapped_invoker@P6AHPEAU_iobuf@@@Z$1?_fflush_nolock@@YAH0@Z@@SAHPEAU_iobuf@@@Z ; wrapped_invoker<int (__cdecl*)(_iobuf *),&_fflush_nolock>::call
_o__fgetc_nolock = ?call@?$wrapped_invoker@P6AHPEAU_iobuf@@@Z$1?_fgetc_nolock@@YAH0@Z@@SAHPEAU_iobuf@@@Z ; wrapped_invoker<int (__cdecl*)(_iobuf *),&_fgetc_nolock>::call
_o__fgetchar = ?call@?$wrapped_invoker@P6AHXZ$1?_fgetchar@@YAHXZ@@SAHXZ ; wrapped_invoker<int (__cdecl*)(void),&_fgetchar>::call
_o__fgetwc_nolock = ?call@?$wrapped_invoker@P6AGPEAU_iobuf@@@Z$1?_fgetwc_nolock@@YAG0@Z@@SAGPEAU_iobuf@@@Z ; wrapped_invoker<unsigned short (__cdecl*)(_iobuf *),&_fgetwc_nolock>::call
_o__fgetwchar = ?call@?$wrapped_invoker@P6AGXZ$1?_fgetwchar@@YAGXZ@@SAGXZ ; wrapped_invoker<unsigned short (__cdecl*)(void),&_fgetwchar>::call
_o__filelength = ?call@?$wrapped_invoker@P6AJH@Z$1?_filelength@@YAJH@Z@@SAJH@Z ; wrapped_invoker<long (__cdecl*)(int),&_filelength>::call
_o__filelengthi64 = ?call@?$wrapped_invoker@P6A_JH@Z$1?_filelengthi64@@YA_JH@Z@@SA_JH@Z ; wrapped_invoker<__int64 (__cdecl*)(int),&_filelengthi64>::call
_o__fileno = ?call@?$wrapped_invoker@P6AHPEAU_iobuf@@@Z$1?_fileno@@YAH0@Z@@SAHPEAU_iobuf@@@Z ; wrapped_invoker<int (__cdecl*)(_iobuf *),&_fileno>::call
_o__findclose = ?call@?$wrapped_invoker@P6AH_J@Z$1?_findclose@@YAH0@Z@@SAH_J@Z ; wrapped_invoker<int (__cdecl*)(__int64),&_findclose>::call
_o__findfirst32 = ?call@?$wrapped_invoker@P6A_JPEBDPEAU_finddata32_t@@@Z$1?_findfirst32@@YA_J01@Z@@SA_JPEBDPEAU_finddata32_t@@@Z ; wrapped_invoker<__int64 (__cdecl*)(char const *,_finddata32_t *),&_findfirst32>::call
_o__findfirst32i64 = ?call@?$wrapped_invoker@P6A_JPEBDPEAU_finddata32i64_t@@@Z$1?_findfirst32i64@@YA_J01@Z@@SA_JPEBDPEAU_finddata32i64_t@@@Z ; wrapped_invoker<__int64 (__cdecl*)(char const *,_finddata32i64_t *),&_findfirst32i64>::call
_o__findfirst64 = ?call@?$wrapped_invoker@P6A_JPEBDPEAU__finddata64_t@@@Z$1?_findfirst64@@YA_J01@Z@@SA_JPEBDPEAU__finddata64_t@@@Z ; wrapped_invoker<__int64 (__cdecl*)(char const *,__finddata64_t *),&_findfirst64>::call
_o__findfirst64i32 = ?call@?$wrapped_invoker@P6A_JPEBDPEAU_finddata64i32_t@@@Z$1?_findfirst64i32@@YA_J01@Z@@SA_JPEBDPEAU_finddata64i32_t@@@Z ; wrapped_invoker<__int64 (__cdecl*)(char const *,_finddata64i32_t *),&_findfirst64i32>::call
_o__findnext32 = ?call@?$wrapped_invoker@P6AH_JPEAU_finddata32_t@@@Z$1?_findnext32@@YAH01@Z@@SAH_JPEAU_finddata32_t@@@Z ; wrapped_invoker<int (__cdecl*)(__int64,_finddata32_t *),&_findnext32>::call
_o__findnext32i64 = ?call@?$wrapped_invoker@P6AH_JPEAU_finddata32i64_t@@@Z$1?_findnext32i64@@YAH01@Z@@SAH_JPEAU_finddata32i64_t@@@Z ; wrapped_invoker<int (__cdecl*)(__int64,_finddata32i64_t *),&_findnext32i64>::call
_o__findnext64 = ?call@?$wrapped_invoker@P6AH_JPEAU__finddata64_t@@@Z$1?_findnext64@@YAH01@Z@@SAH_JPEAU__finddata64_t@@@Z ; wrapped_invoker<int (__cdecl*)(__int64,__finddata64_t *),&_findnext64>::call
_o__findnext64i32 = ?call@?$wrapped_invoker@P6AH_JPEAU_finddata64i32_t@@@Z$1?_findnext64i32@@YAH01@Z@@SAH_JPEAU_finddata64i32_t@@@Z ; wrapped_invoker<int (__cdecl*)(__int64,_finddata64i32_t *),&_findnext64i32>::call
_o__flushall = ?call@?$wrapped_invoker@P6AHXZ$1?_flushall@@YAHXZ@@SAHXZ ; wrapped_invoker<int (__cdecl*)(void),&_flushall>::call
_o__fpclass = ?call@?$wrapped_invoker@P6AHN@Z$1?_fpclass@@YAHN@Z@@SAHN@Z ; wrapped_invoker<int (__cdecl*)(double),&_fpclass>::call
_o__fpclassf = ?call@?$wrapped_invoker@P6AHM@Z$1?_fpclassf@@YAHM@Z@@SAHM@Z ; wrapped_invoker<int (__cdecl*)(float),&_fpclassf>::call
_o__fputc_nolock = ?call@?$wrapped_invoker@P6AHHPEAU_iobuf@@@Z$1?_fputc_nolock@@YAHH0@Z@@SAHHPEAU_iobuf@@@Z ; wrapped_invoker<int (__cdecl*)(int,_iobuf *),&_fputc_nolock>::call
_o__fputchar = ?call@?$wrapped_invoker@P6AHH@Z$1?_fputchar@@YAHH@Z@@SAHH@Z ; wrapped_invoker<int (__cdecl*)(int),&_fputchar>::call
_o__fputwc_nolock = ?call@?$wrapped_invoker@P6AG_WPEAU_iobuf@@@Z$1?_fputwc_nolock@@YAG01@Z@@SAG_WPEAU_iobuf@@@Z ; wrapped_invoker<unsigned short (__cdecl*)(wchar_t,_iobuf *),&_fputwc_nolock>::call
_o__fputwchar = ?call@?$wrapped_invoker@P6AG_W@Z$1?_fputwchar@@YAG0@Z@@SAG_W@Z ; wrapped_invoker<unsigned short (__cdecl*)(wchar_t),&_fputwchar>::call
_o__fread_nolock = ?call@?$wrapped_invoker@P6A_KPEAX_K1PEAU_iobuf@@@Z$1?_fread_nolock@@YA_K0112@Z@@SA_KPEAX_K1PEAU_iobuf@@@Z ; wrapped_invoker<unsigned __int64 (__cdecl*)(void *,unsigned __int64,unsigned __int64,_iobuf *),&_fread_nolock>::call
_o__fread_nolock_s = ?call@?$wrapped_invoker@P6A_KPEAX_K11PEAU_iobuf@@@Z$1?_fread_nolock_s@@YA_K01112@Z@@SA_KPEAX_K11PEAU_iobuf@@@Z ; wrapped_invoker<unsigned __int64 (__cdecl*)(void *,unsigned __int64,unsigned __int64,unsigned __int64,_iobuf *),&_fread_nolock_s>::call
_o__free_base = ?call@?$wrapped_invoker@P6AXPEAX@Z$1?_free_base@@YAX0@Z@@SAXPEAX@Z ; wrapped_invoker<void (__cdecl*)(void *),&_free_base>::call
_o__free_locale = ?call@?$wrapped_invoker@P6AXPEAU__crt_locale_pointers@@@Z$1?_free_locale@@YAX0@Z@@SAXPEAU__crt_locale_pointers@@@Z ; wrapped_invoker<void (__cdecl*)(__crt_locale_pointers *),&_free_locale>::call
_o__fseek_nolock = ?call@?$wrapped_invoker@P6AHPEAU_iobuf@@JH@Z$1?_fseek_nolock@@YAH0JH@Z@@SAHPEAU_iobuf@@JH@Z ; wrapped_invoker<int (__cdecl*)(_iobuf *,long,int),&_fseek_nolock>::call
_o__fseeki64 = ?call@?$wrapped_invoker@P6AHPEAU_iobuf@@_JH@Z$1?_fseeki64@@YAH01H@Z@@SAHPEAU_iobuf@@_JH@Z ; wrapped_invoker<int (__cdecl*)(_iobuf *,__int64,int),&_fseeki64>::call
_o__fseeki64_nolock = ?call@?$wrapped_invoker@P6AHPEAU_iobuf@@_JH@Z$1?_fseeki64_nolock@@YAH01H@Z@@SAHPEAU_iobuf@@_JH@Z ; wrapped_invoker<int (__cdecl*)(_iobuf *,__int64,int),&_fseeki64_nolock>::call
_o__fsopen = ?call@?$wrapped_invoker@P6APEAU_iobuf@@PEBD0H@Z$1?_fsopen@@YAPEAU1@00H@Z@@SAPEAU_iobuf@@PEBD0H@Z ; wrapped_invoker<_iobuf * (__cdecl*)(char const *,char const *,int),&_fsopen>::call
_o__fstat32 = ?call@?$wrapped_invoker@P6AHHPEAU_stat32@@@Z$1?_fstat32@@YAHH0@Z@@SAHHPEAU_stat32@@@Z ; wrapped_invoker<int (__cdecl*)(int,_stat32 *),&_fstat32>::call
_o__fstat32i64 = ?call@?$wrapped_invoker@P6AHHPEAU_stat32i64@@@Z$1?_fstat32i64@@YAHH0@Z@@SAHHPEAU_stat32i64@@@Z ; wrapped_invoker<int (__cdecl*)(int,_stat32i64 *),&_fstat32i64>::call
_o__fstat64 = ?call@?$wrapped_invoker@P6AHHPEAU_stat64@@@Z$1?_fstat64@@YAHH0@Z@@SAHHPEAU_stat64@@@Z ; wrapped_invoker<int (__cdecl*)(int,_stat64 *),&_fstat64>::call
_o__fstat64i32 = ?call@?$wrapped_invoker@P6AHHPEAU_stat64i32@@@Z$1?_fstat64i32@@YAHH0@Z@@SAHHPEAU_stat64i32@@@Z ; wrapped_invoker<int (__cdecl*)(int,_stat64i32 *),&_fstat64i32>::call
_o__ftell_nolock = ?call@?$wrapped_invoker@P6AJPEAU_iobuf@@@Z$1?_ftell_nolock@@YAJ0@Z@@SAJPEAU_iobuf@@@Z ; wrapped_invoker<long (__cdecl*)(_iobuf *),&_ftell_nolock>::call
_o__ftelli64 = ?call@?$wrapped_invoker@P6A_JPEAU_iobuf@@@Z$1?_ftelli64@@YA_J0@Z@@SA_JPEAU_iobuf@@@Z ; wrapped_invoker<__int64 (__cdecl*)(_iobuf *),&_ftelli64>::call
_o__ftelli64_nolock = ?call@?$wrapped_invoker@P6A_JPEAU_iobuf@@@Z$1?_ftelli64_nolock@@YA_J0@Z@@SA_JPEAU_iobuf@@@Z ; wrapped_invoker<__int64 (__cdecl*)(_iobuf *),&_ftelli64_nolock>::call
_o__ftime32 = ?call@?$wrapped_invoker@P6AXPEAU__timeb32@@@Z$1?_ftime32@@YAX0@Z@@SAXPEAU__timeb32@@@Z ; wrapped_invoker<void (__cdecl*)(__timeb32 *),&_ftime32>::call
_o__ftime32_s = ?call@?$wrapped_invoker@P6AHPEAU__timeb32@@@Z$1?_ftime32_s@@YAH0@Z@@SAHPEAU__timeb32@@@Z ; wrapped_invoker<int (__cdecl*)(__timeb32 *),&_ftime32_s>::call
_o__ftime64 = ?call@?$wrapped_invoker@P6AXPEAU__timeb64@@@Z$1?_ftime64@@YAX0@Z@@SAXPEAU__timeb64@@@Z ; wrapped_invoker<void (__cdecl*)(__timeb64 *),&_ftime64>::call
_o__ftime64_s = ?call@?$wrapped_invoker@P6AHPEAU__timeb64@@@Z$1?_ftime64_s@@YAH0@Z@@SAHPEAU__timeb64@@@Z ; wrapped_invoker<int (__cdecl*)(__timeb64 *),&_ftime64_s>::call
_o__fullpath = ?call@?$wrapped_invoker@P6APEADPEADPEBD_K@Z$1?_fullpath@@YAPEAD012@Z@@SAPEADPEADPEBD_K@Z ; wrapped_invoker<char * (__cdecl*)(char *,char const *,unsigned __int64),&_fullpath>::call
_o__futime32 = ?call@?$wrapped_invoker@P6AHHPEAU__utimbuf32@@@Z$1?_futime32@@YAHH0@Z@@SAHHPEAU__utimbuf32@@@Z ; wrapped_invoker<int (__cdecl*)(int,__utimbuf32 *),&_futime32>::call
_o__futime64 = ?call@?$wrapped_invoker@P6AHHPEAU__utimbuf64@@@Z$1?_futime64@@YAHH0@Z@@SAHHPEAU__utimbuf64@@@Z ; wrapped_invoker<int (__cdecl*)(int,__utimbuf64 *),&_futime64>::call
_o__fwrite_nolock = ?call@?$wrapped_invoker@P6A_KPEBX_K1PEAU_iobuf@@@Z$1?_fwrite_nolock@@YA_K0112@Z@@SA_KPEBX_K1PEAU_iobuf@@@Z ; wrapped_invoker<unsigned __int64 (__cdecl*)(void const *,unsigned __int64,unsigned __int64,_iobuf *),&_fwrite_nolock>::call
_o__gcvt = ?call@?$wrapped_invoker@P6APEADNHPEAD@Z$1?_gcvt@@YAPEADNH0@Z@@SAPEADNHPEAD@Z ; wrapped_invoker<char * (__cdecl*)(double,int,char *),&_gcvt>::call
_o__gcvt_s = ?call@?$wrapped_invoker@P6AHPEAD_KNH@Z$1?_gcvt_s@@YAH01NH@Z@@SAHPEAD_KNH@Z ; wrapped_invoker<int (__cdecl*)(char *,unsigned __int64,double,int),&_gcvt_s>::call
_o__get_daylight = ?call@?$wrapped_invoker@P6AHPEAH@Z$1?_get_daylight@@YAH0@Z@@SAHPEAH@Z ; wrapped_invoker<int (__cdecl*)(int *),&_get_daylight>::call
_o__get_doserrno = ?call@?$wrapped_invoker@P6AHPEAK@Z$1?_get_doserrno@@YAH0@Z@@SAHPEAK@Z ; wrapped_invoker<int (__cdecl*)(unsigned long *),&_get_doserrno>::call
_o__get_dstbias = ?call@?$wrapped_invoker@P6AHPEAJ@Z$1?_get_dstbias@@YAH0@Z@@SAHPEAJ@Z ; wrapped_invoker<int (__cdecl*)(long *),&_get_dstbias>::call
_o__get_errno = ?call@?$wrapped_invoker@P6AHPEAH@Z$1?_get_errno@@YAH0@Z@@SAHPEAH@Z ; wrapped_invoker<int (__cdecl*)(int *),&_get_errno>::call
_o__get_fmode = ?call@?$wrapped_invoker@P6AHPEAH@Z$1?_get_fmode@@YAH0@Z@@SAHPEAH@Z ; wrapped_invoker<int (__cdecl*)(int *),&_get_fmode>::call
_o__get_heap_handle = ?call@?$wrapped_invoker@P6A_JXZ$1?_get_heap_handle@@YA_JXZ@@SA_JXZ ; wrapped_invoker<__int64 (__cdecl*)(void),&_get_heap_handle>::call
_o__get_initial_narrow_environment = ?call@?$wrapped_invoker@P6APEAPEADXZ$1?_get_initial_narrow_environment@@YAPEAPEADXZ@@SAPEAPEADXZ ; wrapped_invoker<char * * (__cdecl*)(void),&_get_initial_narrow_environment>::call
_o__get_initial_wide_environment = ?call@?$wrapped_invoker@P6APEAPEA_WXZ$1?_get_initial_wide_environment@@YAPEAPEA_WXZ@@SAPEAPEA_WXZ ; wrapped_invoker<wchar_t * * (__cdecl*)(void),&_get_initial_wide_environment>::call
_o__get_invalid_parameter_handler = ?call@?$wrapped_invoker@P6AP6AXPEB_W00I_K@ZXZ$1?_get_invalid_parameter_handler@@YAP6AX000I1@ZXZ@@SAP6AXPEB_W00I_K@ZXZ ; wrapped_invoker<void (__cdecl*(__cdecl*)(void))(wchar_t const *,wchar_t const *,wchar_t const *,unsigned int,unsigned __int64),&_get_invalid_parameter_handler>::call
_o__get_narrow_winmain_command_line = ?call@?$wrapped_invoker@P6APEADXZ$1?_get_narrow_winmain_command_line@@YAPEADXZ@@SAPEADXZ ; wrapped_invoker<char * (__cdecl*)(void),&_get_narrow_winmain_command_line>::call
_o__get_osfhandle = ?call@?$wrapped_invoker@P6A_JH@Z$1?_get_osfhandle@@YA_JH@Z@@SA_JH@Z ; wrapped_invoker<__int64 (__cdecl*)(int),&_get_osfhandle>::call
_o__get_pgmptr = ?call@?$wrapped_invoker@P6AHPEAPEAD@Z$1?_get_pgmptr@@YAH0@Z@@SAHPEAPEAD@Z ; wrapped_invoker<int (__cdecl*)(char * *),&_get_pgmptr>::call
_o__get_stream_buffer_pointers = ?call@?$wrapped_invoker@P6AHPEAU_iobuf@@PEAPEAPEAD1PEAPEAH@Z$1?_get_stream_buffer_pointers@@YAH0112@Z@@SAHPEAU_iobuf@@PEAPEAPEAD1PEAPEAH@Z ; wrapped_invoker<int (__cdecl*)(_iobuf *,char * * *,char * * *,int * *),&_get_stream_buffer_pointers>::call
_o__get_terminate = ?call@?$wrapped_invoker@P6AP6AXXZXZ$1?_get_terminate@@YAP6AXXZXZ@@SAP6AXXZXZ ; wrapped_invoker<void (__cdecl*(__cdecl*)(void))(void),&_get_terminate>::call
_o__get_thread_local_invalid_parameter_handler = ?call@?$wrapped_invoker@P6AP6AXPEB_W00I_K@ZXZ$1?_get_thread_local_invalid_parameter_handler@@YAP6AX000I1@ZXZ@@SAP6AXPEB_W00I_K@ZXZ ; wrapped_invoker<void (__cdecl*(__cdecl*)(void))(wchar_t const *,wchar_t const *,wchar_t const *,unsigned int,unsigned __int64),&_get_thread_local_invalid_parameter_handler>::call
_o__get_timezone = ?call@?$wrapped_invoker@P6AHPEAJ@Z$1?_get_timezone@@YAH0@Z@@SAHPEAJ@Z ; wrapped_invoker<int (__cdecl*)(long *),&_get_timezone>::call
_o__get_tzname = ?call@?$wrapped_invoker@P6AHPEA_KPEAD_KH@Z$1?_get_tzname@@YAH012H@Z@@SAHPEA_KPEAD_KH@Z ; wrapped_invoker<int (__cdecl*)(unsigned __int64 *,char *,unsigned __int64,int),&_get_tzname>::call
_o__get_wide_winmain_command_line = ?call@?$wrapped_invoker@P6APEA_WXZ$1?_get_wide_winmain_command_line@@YAPEA_WXZ@@SAPEA_WXZ ; wrapped_invoker<wchar_t * (__cdecl*)(void),&_get_wide_winmain_command_line>::call
_o__get_wpgmptr = ?call@?$wrapped_invoker@P6AHPEAPEA_W@Z$1?_get_wpgmptr@@YAH0@Z@@SAHPEAPEA_W@Z ; wrapped_invoker<int (__cdecl*)(wchar_t * *),&_get_wpgmptr>::call
_o__getc_nolock = ?call@?$wrapped_invoker@P6AHPEAU_iobuf@@@Z$1?_getc_nolock@@YAH0@Z@@SAHPEAU_iobuf@@@Z ; wrapped_invoker<int (__cdecl*)(_iobuf *),&_getc_nolock>::call
_o__getch = ?call@?$wrapped_invoker@P6AHXZ$1?_getch@@YAHXZ@@SAHXZ ; wrapped_invoker<int (__cdecl*)(void),&_getch>::call
_o__getch_nolock = ?call@?$wrapped_invoker@P6AHXZ$1?_getch_nolock@@YAHXZ@@SAHXZ ; wrapped_invoker<int (__cdecl*)(void),&_getch_nolock>::call
_o__getche = ?call@?$wrapped_invoker@P6AHXZ$1?_getche@@YAHXZ@@SAHXZ ; wrapped_invoker<int (__cdecl*)(void),&_getche>::call
_o__getche_nolock = ?call@?$wrapped_invoker@P6AHXZ$1?_getche_nolock@@YAHXZ@@SAHXZ ; wrapped_invoker<int (__cdecl*)(void),&_getche_nolock>::call
_o__getcwd = ?call@?$wrapped_invoker@P6APEADPEADH@Z$1?_getcwd@@YAPEAD0H@Z@@SAPEADPEADH@Z ; wrapped_invoker<char * (__cdecl*)(char *,int),&_getcwd>::call
_o__getdcwd = ?call@?$wrapped_invoker@P6APEADHPEADH@Z$1?_getdcwd@@YAPEADH0H@Z@@SAPEADHPEADH@Z ; wrapped_invoker<char * (__cdecl*)(int,char *,int),&_getdcwd>::call
_o__getdiskfree = ?call@?$wrapped_invoker@P6AIIPEAU_diskfree_t@@@Z$1?_getdiskfree@@YAII0@Z@@SAIIPEAU_diskfree_t@@@Z ; wrapped_invoker<unsigned int (__cdecl*)(unsigned int,_diskfree_t *),&_getdiskfree>::call
_o__getdllprocaddr = ?call@?$wrapped_invoker@P6AP6AHXZ_JPEAD0@Z$1?_getdllprocaddr@@YAP6AHXZ010@Z@@SAP6AHXZ_JPEAD0@Z ; wrapped_invoker<int (__cdecl*(__cdecl*)(__int64,char *,__int64))(void),&_getdllprocaddr>::call
_o__getdrive = ?call@?$wrapped_invoker@P6AHXZ$1?_getdrive@@YAHXZ@@SAHXZ ; wrapped_invoker<int (__cdecl*)(void),&_getdrive>::call
_o__getdrives = ?call@?$wrapped_invoker@P6AKXZ$1?_getdrives@@YAKXZ@@SAKXZ ; wrapped_invoker<unsigned long (__cdecl*)(void),&_getdrives>::call
_o__getmbcp = ?call@?$wrapped_invoker@P6AHXZ$1?_getmbcp@@YAHXZ@@SAHXZ ; wrapped_invoker<int (__cdecl*)(void),&_getmbcp>::call
_o__getsystime = ?call@?$wrapped_invoker@P6AIPEAUtm@@@Z$1?_getsystime@@YAI0@Z@@SAIPEAUtm@@@Z ; wrapped_invoker<unsigned int (__cdecl*)(tm *),&_getsystime>::call
_o__getw = ?call@?$wrapped_invoker@P6AHPEAU_iobuf@@@Z$1?_getw@@YAH0@Z@@SAHPEAU_iobuf@@@Z ; wrapped_invoker<int (__cdecl*)(_iobuf *),&_getw>::call
_o__getwc_nolock = ?call@?$wrapped_invoker@P6AGPEAU_iobuf@@@Z$1?_getwc_nolock@@YAG0@Z@@SAGPEAU_iobuf@@@Z ; wrapped_invoker<unsigned short (__cdecl*)(_iobuf *),&_getwc_nolock>::call
_o__getwch = ?call@?$wrapped_invoker@P6AGXZ$1?_getwch@@YAGXZ@@SAGXZ ; wrapped_invoker<unsigned short (__cdecl*)(void),&_getwch>::call
_o__getwch_nolock = ?call@?$wrapped_invoker@P6AGXZ$1?_getwch_nolock@@YAGXZ@@SAGXZ ; wrapped_invoker<unsigned short (__cdecl*)(void),&_getwch_nolock>::call
_o__getwche = ?call@?$wrapped_invoker@P6AGXZ$1?_getwche@@YAGXZ@@SAGXZ ; wrapped_invoker<unsigned short (__cdecl*)(void),&_getwche>::call
_o__getwche_nolock = ?call@?$wrapped_invoker@P6AGXZ$1?_getwche_nolock@@YAGXZ@@SAGXZ ; wrapped_invoker<unsigned short (__cdecl*)(void),&_getwche_nolock>::call
_o__getws = ?call@?$wrapped_invoker@P6APEA_WPEA_W@Z$1?_getws@@YAPEA_W0@Z@@SAPEA_WPEA_W@Z ; wrapped_invoker<wchar_t * (__cdecl*)(wchar_t *),&_getws>::call
_o__getws_s = ?call@?$wrapped_invoker@P6APEA_WPEA_W_K@Z$1?_getws_s@@YAPEA_W01@Z@@SAPEA_WPEA_W_K@Z ; wrapped_invoker<wchar_t * (__cdecl*)(wchar_t *,unsigned __int64),&_getws_s>::call
_o__gmtime32 = ?call@?$wrapped_invoker@P6APEAUtm@@PEBJ@Z$1?_gmtime32@@YAPEAU1@0@Z@@SAPEAUtm@@PEBJ@Z ; wrapped_invoker<tm * (__cdecl*)(long const *),&_gmtime32>::call
_o__gmtime32_s = ?call@?$wrapped_invoker@P6AHPEAUtm@@PEBJ@Z$1?_gmtime32_s@@YAH01@Z@@SAHPEAUtm@@PEBJ@Z ; wrapped_invoker<int (__cdecl*)(tm *,long const *),&_gmtime32_s>::call
_o__gmtime64 = ?call@?$wrapped_invoker@P6APEAUtm@@PEB_J@Z$1?_gmtime64@@YAPEAU1@0@Z@@SAPEAUtm@@PEB_J@Z ; wrapped_invoker<tm * (__cdecl*)(__int64 const *),&_gmtime64>::call
_o__gmtime64_s = ?call@?$wrapped_invoker@P6AHPEAUtm@@PEB_J@Z$1?_gmtime64_s@@YAH01@Z@@SAHPEAUtm@@PEB_J@Z ; wrapped_invoker<int (__cdecl*)(tm *,__int64 const *),&_gmtime64_s>::call
_o__heapchk = ?call@?$wrapped_invoker@P6AHXZ$1?_heapchk@@YAHXZ@@SAHXZ ; wrapped_invoker<int (__cdecl*)(void),&_heapchk>::call
_o__heapmin = ?call@?$wrapped_invoker@P6AHXZ$1?_heapmin@@YAHXZ@@SAHXZ ; wrapped_invoker<int (__cdecl*)(void),&_heapmin>::call
_o__hypot = ?call@?$wrapped_invoker@P6ANNN@Z$1?_hypot@@YANNN@Z@@SANNN@Z ; wrapped_invoker<double (__cdecl*)(double,double),&_hypot>::call
_o__hypotf = ?call@?$wrapped_invoker@P6AMMM@Z$1?_hypotf@@YAMMM@Z@@SAMMM@Z ; wrapped_invoker<float (__cdecl*)(float,float),&_hypotf>::call
_o__i64toa = ?call@?$wrapped_invoker@P6APEAD_JPEADH@Z$1?_i64toa@@YAPEAD01H@Z@@SAPEAD_JPEADH@Z ; wrapped_invoker<char * (__cdecl*)(__int64,char *,int),&_i64toa>::call
_o__i64toa_s = ?call@?$wrapped_invoker@P6AH_JPEAD_KH@Z$1?_i64toa_s@@YAH012H@Z@@SAH_JPEAD_KH@Z ; wrapped_invoker<int (__cdecl*)(__int64,char *,unsigned __int64,int),&_i64toa_s>::call
_o__i64tow = ?call@?$wrapped_invoker@P6APEA_W_JPEA_WH@Z$1?_i64tow@@YAPEA_W01H@Z@@SAPEA_W_JPEA_WH@Z ; wrapped_invoker<wchar_t * (__cdecl*)(__int64,wchar_t *,int),&_i64tow>::call
_o__i64tow_s = ?call@?$wrapped_invoker@P6AH_JPEA_W_KH@Z$1?_i64tow_s@@YAH012H@Z@@SAH_JPEA_W_KH@Z ; wrapped_invoker<int (__cdecl*)(__int64,wchar_t *,unsigned __int64,int),&_i64tow_s>::call
_o__initialize_narrow_environment = ?call@?$wrapped_invoker@P6AHXZ$1?_initialize_narrow_environment@@YAHXZ@@SAHXZ ; wrapped_invoker<int (__cdecl*)(void),&_initialize_narrow_environment>::call
_o__initialize_onexit_table = ?call@?$wrapped_invoker@P6AHPEAU_onexit_table_t@@@Z$1?_initialize_onexit_table@@YAH0@Z@@SAHPEAU_onexit_table_t@@@Z ; wrapped_invoker<int (__cdecl*)(_onexit_table_t *),&_initialize_onexit_table>::call
_o__initialize_wide_environment = ?call@?$wrapped_invoker@P6AHXZ$1?_initialize_wide_environment@@YAHXZ@@SAHXZ ; wrapped_invoker<int (__cdecl*)(void),&_initialize_wide_environment>::call
_o__invalid_parameter_noinfo = ?call@?$wrapped_invoker@P6AXXZ$1?_invalid_parameter_noinfo@@YAXXZ@@SAXXZ ; wrapped_invoker<void (__cdecl*)(void),&_invalid_parameter_noinfo>::call
_o__invalid_parameter_noinfo_noreturn = ?call@?$wrapped_invoker@P6AXXZ$1?_invalid_parameter_noinfo_noreturn@@YAXXZ@@SAXXZ ; wrapped_invoker<void (__cdecl*)(void),&_invalid_parameter_noinfo_noreturn>::call
_o__isatty = ?call@?$wrapped_invoker@P6AHH@Z$1?_isatty@@YAHH@Z@@SAHH@Z ; wrapped_invoker<int (__cdecl*)(int),&_isatty>::call
_o__isctype = ?call@?$wrapped_invoker@P6AHHH@Z$1?_isctype@@YAHHH@Z@@SAHHH@Z ; wrapped_invoker<int (__cdecl*)(int,int),&_isctype>::call
_o__isctype_l = ?call@?$wrapped_invoker@P6AHHHPEAU__crt_locale_pointers@@@Z$1?_isctype_l@@YAHHH0@Z@@SAHHHPEAU__crt_locale_pointers@@@Z ; wrapped_invoker<int (__cdecl*)(int,int,__crt_locale_pointers *),&_isctype_l>::call
_o__isleadbyte_l = ?call@?$wrapped_invoker@P6AHHPEAU__crt_locale_pointers@@@Z$1?_isleadbyte_l@@YAHH0@Z@@SAHHPEAU__crt_locale_pointers@@@Z ; wrapped_invoker<int (__cdecl*)(int,__crt_locale_pointers *),&_isleadbyte_l>::call
_o__ismbbalnum = ?call@?$wrapped_invoker@P6AHI@Z$1?_ismbbalnum@@YAHI@Z@@SAHI@Z ; wrapped_invoker<int (__cdecl*)(unsigned int),&_ismbbalnum>::call
_o__ismbbalnum_l = ?call@?$wrapped_invoker@P6AHIPEAU__crt_locale_pointers@@@Z$1?_ismbbalnum_l@@YAHI0@Z@@SAHIPEAU__crt_locale_pointers@@@Z ; wrapped_invoker<int (__cdecl*)(unsigned int,__crt_locale_pointers *),&_ismbbalnum_l>::call
_o__ismbbalpha = ?call@?$wrapped_invoker@P6AHI@Z$1?_ismbbalpha@@YAHI@Z@@SAHI@Z ; wrapped_invoker<int (__cdecl*)(unsigned int),&_ismbbalpha>::call
_o__ismbbalpha_l = ?call@?$wrapped_invoker@P6AHIPEAU__crt_locale_pointers@@@Z$1?_ismbbalpha_l@@YAHI0@Z@@SAHIPEAU__crt_locale_pointers@@@Z ; wrapped_invoker<int (__cdecl*)(unsigned int,__crt_locale_pointers *),&_ismbbalpha_l>::call
_o__ismbbblank = ?call@?$wrapped_invoker@P6AHI@Z$1?_ismbbblank@@YAHI@Z@@SAHI@Z ; wrapped_invoker<int (__cdecl*)(unsigned int),&_ismbbblank>::call
_o__ismbbblank_l = ?call@?$wrapped_invoker@P6AHIPEAU__crt_locale_pointers@@@Z$1?_ismbbblank_l@@YAHI0@Z@@SAHIPEAU__crt_locale_pointers@@@Z ; wrapped_invoker<int (__cdecl*)(unsigned int,__crt_locale_pointers *),&_ismbbblank_l>::call
_o__ismbbgraph = ?call@?$wrapped_invoker@P6AHI@Z$1?_ismbbgraph@@YAHI@Z@@SAHI@Z ; wrapped_invoker<int (__cdecl*)(unsigned int),&_ismbbgraph>::call
_o__ismbbgraph_l = ?call@?$wrapped_invoker@P6AHIPEAU__crt_locale_pointers@@@Z$1?_ismbbgraph_l@@YAHI0@Z@@SAHIPEAU__crt_locale_pointers@@@Z ; wrapped_invoker<int (__cdecl*)(unsigned int,__crt_locale_pointers *),&_ismbbgraph_l>::call
_o__ismbbkalnum = ?call@?$wrapped_invoker@P6AHI@Z$1?_ismbbkalnum@@YAHI@Z@@SAHI@Z ; wrapped_invoker<int (__cdecl*)(unsigned int),&_ismbbkalnum>::call
_o__ismbbkalnum_l = ?call@?$wrapped_invoker@P6AHIPEAU__crt_locale_pointers@@@Z$1?_ismbbkalnum_l@@YAHI0@Z@@SAHIPEAU__crt_locale_pointers@@@Z ; wrapped_invoker<int (__cdecl*)(unsigned int,__crt_locale_pointers *),&_ismbbkalnum_l>::call
_o__ismbbkana = ?call@?$wrapped_invoker@P6AHI@Z$1?_ismbbkana@@YAHI@Z@@SAHI@Z ; wrapped_invoker<int (__cdecl*)(unsigned int),&_ismbbkana>::call
_o__ismbbkana_l = ?call@?$wrapped_invoker@P6AHIPEAU__crt_locale_pointers@@@Z$1?_ismbbkana_l@@YAHI0@Z@@SAHIPEAU__crt_locale_pointers@@@Z ; wrapped_invoker<int (__cdecl*)(unsigned int,__crt_locale_pointers *),&_ismbbkana_l>::call
_o__ismbbkprint = ?call@?$wrapped_invoker@P6AHI@Z$1?_ismbbkprint@@YAHI@Z@@SAHI@Z ; wrapped_invoker<int (__cdecl*)(unsigned int),&_ismbbkprint>::call
_o__ismbbkprint_l = ?call@?$wrapped_invoker@P6AHIPEAU__crt_locale_pointers@@@Z$1?_ismbbkprint_l@@YAHI0@Z@@SAHIPEAU__crt_locale_pointers@@@Z ; wrapped_invoker<int (__cdecl*)(unsigned int,__crt_locale_pointers *),&_ismbbkprint_l>::call
_o__ismbbkpunct = ?call@?$wrapped_invoker@P6AHI@Z$1?_ismbbkpunct@@YAHI@Z@@SAHI@Z ; wrapped_invoker<int (__cdecl*)(unsigned int),&_ismbbkpunct>::call
_o__ismbbkpunct_l = ?call@?$wrapped_invoker@P6AHIPEAU__crt_locale_pointers@@@Z$1?_ismbbkpunct_l@@YAHI0@Z@@SAHIPEAU__crt_locale_pointers@@@Z ; wrapped_invoker<int (__cdecl*)(unsigned int,__crt_locale_pointers *),&_ismbbkpunct_l>::call
_o__ismbblead = ?call@?$wrapped_invoker@P6AHI@Z$1?_ismbblead@@YAHI@Z@@SAHI@Z ; wrapped_invoker<int (__cdecl*)(unsigned int),&_ismbblead>::call
_o__ismbblead_l = ?call@?$wrapped_invoker@P6AHIPEAU__crt_locale_pointers@@@Z$1?_ismbblead_l@@YAHI0@Z@@SAHIPEAU__crt_locale_pointers@@@Z ; wrapped_invoker<int (__cdecl*)(unsigned int,__crt_locale_pointers *),&_ismbblead_l>::call
_o__ismbbprint = ?call@?$wrapped_invoker@P6AHI@Z$1?_ismbbprint@@YAHI@Z@@SAHI@Z ; wrapped_invoker<int (__cdecl*)(unsigned int),&_ismbbprint>::call
_o__ismbbprint_l = ?call@?$wrapped_invoker@P6AHIPEAU__crt_locale_pointers@@@Z$1?_ismbbprint_l@@YAHI0@Z@@SAHIPEAU__crt_locale_pointers@@@Z ; wrapped_invoker<int (__cdecl*)(unsigned int,__crt_locale_pointers *),&_ismbbprint_l>::call
_o__ismbbpunct = ?call@?$wrapped_invoker@P6AHI@Z$1?_ismbbpunct@@YAHI@Z@@SAHI@Z ; wrapped_invoker<int (__cdecl*)(unsigned int),&_ismbbpunct>::call
_o__ismbbpunct_l = ?call@?$wrapped_invoker@P6AHIPEAU__crt_locale_pointers@@@Z$1?_ismbbpunct_l@@YAHI0@Z@@SAHIPEAU__crt_locale_pointers@@@Z ; wrapped_invoker<int (__cdecl*)(unsigned int,__crt_locale_pointers *),&_ismbbpunct_l>::call
_o__ismbbtrail = ?call@?$wrapped_invoker@P6AHI@Z$1?_ismbbtrail@@YAHI@Z@@SAHI@Z ; wrapped_invoker<int (__cdecl*)(unsigned int),&_ismbbtrail>::call
_o__ismbbtrail_l = ?call@?$wrapped_invoker@P6AHIPEAU__crt_locale_pointers@@@Z$1?_ismbbtrail_l@@YAHI0@Z@@SAHIPEAU__crt_locale_pointers@@@Z ; wrapped_invoker<int (__cdecl*)(unsigned int,__crt_locale_pointers *),&_ismbbtrail_l>::call
_o__ismbcalnum = ?call@?$wrapped_invoker@P6AHI@Z$1?_ismbcalnum@@YAHI@Z@@SAHI@Z ; wrapped_invoker<int (__cdecl*)(unsigned int),&_ismbcalnum>::call
_o__ismbcalnum_l = ?call@?$wrapped_invoker@P6AHIPEAU__crt_locale_pointers@@@Z$1?_ismbcalnum_l@@YAHI0@Z@@SAHIPEAU__crt_locale_pointers@@@Z ; wrapped_invoker<int (__cdecl*)(unsigned int,__crt_locale_pointers *),&_ismbcalnum_l>::call
_o__ismbcalpha = ?call@?$wrapped_invoker@P6AHI@Z$1?_ismbcalpha@@YAHI@Z@@SAHI@Z ; wrapped_invoker<int (__cdecl*)(unsigned int),&_ismbcalpha>::call
_o__ismbcalpha_l = ?call@?$wrapped_invoker@P6AHIPEAU__crt_locale_pointers@@@Z$1?_ismbcalpha_l@@YAHI0@Z@@SAHIPEAU__crt_locale_pointers@@@Z ; wrapped_invoker<int (__cdecl*)(unsigned int,__crt_locale_pointers *),&_ismbcalpha_l>::call
_o__ismbcblank = ?call@?$wrapped_invoker@P6AHI@Z$1?_ismbcblank@@YAHI@Z@@SAHI@Z ; wrapped_invoker<int (__cdecl*)(unsigned int),&_ismbcblank>::call
_o__ismbcblank_l = ?call@?$wrapped_invoker@P6AHIPEAU__crt_locale_pointers@@@Z$1?_ismbcblank_l@@YAHI0@Z@@SAHIPEAU__crt_locale_pointers@@@Z ; wrapped_invoker<int (__cdecl*)(unsigned int,__crt_locale_pointers *),&_ismbcblank_l>::call
_o__ismbcdigit = ?call@?$wrapped_invoker@P6AHI@Z$1?_ismbcdigit@@YAHI@Z@@SAHI@Z ; wrapped_invoker<int (__cdecl*)(unsigned int),&_ismbcdigit>::call
_o__ismbcdigit_l = ?call@?$wrapped_invoker@P6AHIPEAU__crt_locale_pointers@@@Z$1?_ismbcdigit_l@@YAHI0@Z@@SAHIPEAU__crt_locale_pointers@@@Z ; wrapped_invoker<int (__cdecl*)(unsigned int,__crt_locale_pointers *),&_ismbcdigit_l>::call
_o__ismbcgraph = ?call@?$wrapped_invoker@P6AHI@Z$1?_ismbcgraph@@YAHI@Z@@SAHI@Z ; wrapped_invoker<int (__cdecl*)(unsigned int),&_ismbcgraph>::call
_o__ismbcgraph_l = ?call@?$wrapped_invoker@P6AHIPEAU__crt_locale_pointers@@@Z$1?_ismbcgraph_l@@YAHI0@Z@@SAHIPEAU__crt_locale_pointers@@@Z ; wrapped_invoker<int (__cdecl*)(unsigned int,__crt_locale_pointers *),&_ismbcgraph_l>::call
_o__ismbchira = ?call@?$wrapped_invoker@P6AHI@Z$1?_ismbchira@@YAHI@Z@@SAHI@Z ; wrapped_invoker<int (__cdecl*)(unsigned int),&_ismbchira>::call
_o__ismbchira_l = ?call@?$wrapped_invoker@P6AHIPEAU__crt_locale_pointers@@@Z$1?_ismbchira_l@@YAHI0@Z@@SAHIPEAU__crt_locale_pointers@@@Z ; wrapped_invoker<int (__cdecl*)(unsigned int,__crt_locale_pointers *),&_ismbchira_l>::call
_o__ismbckata = ?call@?$wrapped_invoker@P6AHI@Z$1?_ismbckata@@YAHI@Z@@SAHI@Z ; wrapped_invoker<int (__cdecl*)(unsigned int),&_ismbckata>::call
_o__ismbckata_l = ?call@?$wrapped_invoker@P6AHIPEAU__crt_locale_pointers@@@Z$1?_ismbckata_l@@YAHI0@Z@@SAHIPEAU__crt_locale_pointers@@@Z ; wrapped_invoker<int (__cdecl*)(unsigned int,__crt_locale_pointers *),&_ismbckata_l>::call
_o__ismbcl0 = ?call@?$wrapped_invoker@P6AHI@Z$1?_ismbcl0@@YAHI@Z@@SAHI@Z ; wrapped_invoker<int (__cdecl*)(unsigned int),&_ismbcl0>::call
_o__ismbcl0_l = ?call@?$wrapped_invoker@P6AHIPEAU__crt_locale_pointers@@@Z$1?_ismbcl0_l@@YAHI0@Z@@SAHIPEAU__crt_locale_pointers@@@Z ; wrapped_invoker<int (__cdecl*)(unsigned int,__crt_locale_pointers *),&_ismbcl0_l>::call
_o__ismbcl1 = ?call@?$wrapped_invoker@P6AHI@Z$1?_ismbcl1@@YAHI@Z@@SAHI@Z ; wrapped_invoker<int (__cdecl*)(unsigned int),&_ismbcl1>::call
_o__ismbcl1_l = ?call@?$wrapped_invoker@P6AHIPEAU__crt_locale_pointers@@@Z$1?_ismbcl1_l@@YAHI0@Z@@SAHIPEAU__crt_locale_pointers@@@Z ; wrapped_invoker<int (__cdecl*)(unsigned int,__crt_locale_pointers *),&_ismbcl1_l>::call
_o__ismbcl2 = ?call@?$wrapped_invoker@P6AHI@Z$1?_ismbcl2@@YAHI@Z@@SAHI@Z ; wrapped_invoker<int (__cdecl*)(unsigned int),&_ismbcl2>::call
_o__ismbcl2_l = ?call@?$wrapped_invoker@P6AHIPEAU__crt_locale_pointers@@@Z$1?_ismbcl2_l@@YAHI0@Z@@SAHIPEAU__crt_locale_pointers@@@Z ; wrapped_invoker<int (__cdecl*)(unsigned int,__crt_locale_pointers *),&_ismbcl2_l>::call
_o__ismbclegal = ?call@?$wrapped_invoker@P6AHI@Z$1?_ismbclegal@@YAHI@Z@@SAHI@Z ; wrapped_invoker<int (__cdecl*)(unsigned int),&_ismbclegal>::call
_o__ismbclegal_l = ?call@?$wrapped_invoker@P6AHIPEAU__crt_locale_pointers@@@Z$1?_ismbclegal_l@@YAHI0@Z@@SAHIPEAU__crt_locale_pointers@@@Z ; wrapped_invoker<int (__cdecl*)(unsigned int,__crt_locale_pointers *),&_ismbclegal_l>::call
_o__ismbclower = ?call@?$wrapped_invoker@P6AHI@Z$1?_ismbclower@@YAHI@Z@@SAHI@Z ; wrapped_invoker<int (__cdecl*)(unsigned int),&_ismbclower>::call
_o__ismbclower_l = ?call@?$wrapped_invoker@P6AHIPEAU__crt_locale_pointers@@@Z$1?_ismbclower_l@@YAHI0@Z@@SAHIPEAU__crt_locale_pointers@@@Z ; wrapped_invoker<int (__cdecl*)(unsigned int,__crt_locale_pointers *),&_ismbclower_l>::call
_o__ismbcprint = ?call@?$wrapped_invoker@P6AHI@Z$1?_ismbcprint@@YAHI@Z@@SAHI@Z ; wrapped_invoker<int (__cdecl*)(unsigned int),&_ismbcprint>::call
_o__ismbcprint_l = ?call@?$wrapped_invoker@P6AHIPEAU__crt_locale_pointers@@@Z$1?_ismbcprint_l@@YAHI0@Z@@SAHIPEAU__crt_locale_pointers@@@Z ; wrapped_invoker<int (__cdecl*)(unsigned int,__crt_locale_pointers *),&_ismbcprint_l>::call
_o__ismbcpunct = ?call@?$wrapped_invoker@P6AHI@Z$1?_ismbcpunct@@YAHI@Z@@SAHI@Z ; wrapped_invoker<int (__cdecl*)(unsigned int),&_ismbcpunct>::call
_o__ismbcpunct_l = ?call@?$wrapped_invoker@P6AHIPEAU__crt_locale_pointers@@@Z$1?_ismbcpunct_l@@YAHI0@Z@@SAHIPEAU__crt_locale_pointers@@@Z ; wrapped_invoker<int (__cdecl*)(unsigned int,__crt_locale_pointers *),&_ismbcpunct_l>::call
_o__ismbcspace = ?call@?$wrapped_invoker@P6AHI@Z$1?_ismbcspace@@YAHI@Z@@SAHI@Z ; wrapped_invoker<int (__cdecl*)(unsigned int),&_ismbcspace>::call
_o__ismbcspace_l = ?call@?$wrapped_invoker@P6AHIPEAU__crt_locale_pointers@@@Z$1?_ismbcspace_l@@YAHI0@Z@@SAHIPEAU__crt_locale_pointers@@@Z ; wrapped_invoker<int (__cdecl*)(unsigned int,__crt_locale_pointers *),&_ismbcspace_l>::call
_o__ismbcsymbol = ?call@?$wrapped_invoker@P6AHI@Z$1?_ismbcsymbol@@YAHI@Z@@SAHI@Z ; wrapped_invoker<int (__cdecl*)(unsigned int),&_ismbcsymbol>::call
_o__ismbcsymbol_l = ?call@?$wrapped_invoker@P6AHIPEAU__crt_locale_pointers@@@Z$1?_ismbcsymbol_l@@YAHI0@Z@@SAHIPEAU__crt_locale_pointers@@@Z ; wrapped_invoker<int (__cdecl*)(unsigned int,__crt_locale_pointers *),&_ismbcsymbol_l>::call
_o__ismbcupper = ?call@?$wrapped_invoker@P6AHI@Z$1?_ismbcupper@@YAHI@Z@@SAHI@Z ; wrapped_invoker<int (__cdecl*)(unsigned int),&_ismbcupper>::call
_o__ismbcupper_l = ?call@?$wrapped_invoker@P6AHIPEAU__crt_locale_pointers@@@Z$1?_ismbcupper_l@@YAHI0@Z@@SAHIPEAU__crt_locale_pointers@@@Z ; wrapped_invoker<int (__cdecl*)(unsigned int,__crt_locale_pointers *),&_ismbcupper_l>::call
_o__ismbslead = ?call@?$wrapped_invoker@P6AHPEBE0@Z$1?_ismbslead@@YAH00@Z@@SAHPEBE0@Z ; wrapped_invoker<int (__cdecl*)(unsigned char const *,unsigned char const *),&_ismbslead>::call
_o__ismbslead_l = ?call@?$wrapped_invoker@P6AHPEBE0PEAU__crt_locale_pointers@@@Z$1?_ismbslead_l@@YAH001@Z@@SAHPEBE0PEAU__crt_locale_pointers@@@Z ; wrapped_invoker<int (__cdecl*)(unsigned char const *,unsigned char const *,__crt_locale_pointers *),&_ismbslead_l>::call
_o__ismbstrail = ?call@?$wrapped_invoker@P6AHPEBE0@Z$1?_ismbstrail@@YAH00@Z@@SAHPEBE0@Z ; wrapped_invoker<int (__cdecl*)(unsigned char const *,unsigned char const *),&_ismbstrail>::call
_o__ismbstrail_l = ?call@?$wrapped_invoker@P6AHPEBE0PEAU__crt_locale_pointers@@@Z$1?_ismbstrail_l@@YAH001@Z@@SAHPEBE0PEAU__crt_locale_pointers@@@Z ; wrapped_invoker<int (__cdecl*)(unsigned char const *,unsigned char const *,__crt_locale_pointers *),&_ismbstrail_l>::call
_o__iswctype_l = ?call@?$wrapped_invoker@P6AHGGPEAU__crt_locale_pointers@@@Z$1?_iswctype_l@@YAHGG0@Z@@SAHGGPEAU__crt_locale_pointers@@@Z ; wrapped_invoker<int (__cdecl*)(unsigned short,unsigned short,__crt_locale_pointers *),&_iswctype_l>::call
_o__itoa = ?call@?$wrapped_invoker@P6APEADHPEADH@Z$1?_itoa@@YAPEADH0H@Z@@SAPEADHPEADH@Z ; wrapped_invoker<char * (__cdecl*)(int,char *,int),&_itoa>::call
_o__itoa_s = ?call@?$wrapped_invoker@P6AHHPEAD_KH@Z$1?_itoa_s@@YAHH01H@Z@@SAHHPEAD_KH@Z ; wrapped_invoker<int (__cdecl*)(int,char *,unsigned __int64,int),&_itoa_s>::call
_o__itow = ?call@?$wrapped_invoker@P6APEA_WHPEA_WH@Z$1?_itow@@YAPEA_WH0H@Z@@SAPEA_WHPEA_WH@Z ; wrapped_invoker<wchar_t * (__cdecl*)(int,wchar_t *,int),&_itow>::call
_o__itow_s = ?call@?$wrapped_invoker@P6AHHPEA_W_KH@Z$1?_itow_s@@YAHH01H@Z@@SAHHPEA_W_KH@Z ; wrapped_invoker<int (__cdecl*)(int,wchar_t *,unsigned __int64,int),&_itow_s>::call
_o__j0 = ?call@?$wrapped_invoker@P6ANN@Z$1?_j0@@YANN@Z@@SANN@Z ; wrapped_invoker<double (__cdecl*)(double),&_j0>::call
_o__j1 = ?call@?$wrapped_invoker@P6ANN@Z$1?_j1@@YANN@Z@@SANN@Z ; wrapped_invoker<double (__cdecl*)(double),&_j1>::call
_o__jn = ?call@?$wrapped_invoker@P6ANHN@Z$1?_jn@@YANHN@Z@@SANHN@Z ; wrapped_invoker<double (__cdecl*)(int,double),&_jn>::call
_o__kbhit = ?call@?$wrapped_invoker@P6AHXZ$1?_kbhit@@YAHXZ@@SAHXZ ; wrapped_invoker<int (__cdecl*)(void),&_kbhit>::call
_o__ld_int = ?call@?$wrapped_invoker@P6AFPEAOF@Z$1?_ld_int@@YAF0F@Z@@SAFPEAOF@Z ; wrapped_invoker<short (__cdecl*)(long double *,short),&_ld_int>::call
_o__ldclass = ?call@?$wrapped_invoker@P6AFO@Z$1?_ldclass@@YAFO@Z@@SAFO@Z ; wrapped_invoker<short (__cdecl*)(long double),&_ldclass>::call
_o__ldexp = ?call@?$wrapped_invoker@P6AFPEAOOJ@Z$1?_ldexp@@YAF0OJ@Z@@SAFPEAOOJ@Z ; wrapped_invoker<short (__cdecl*)(long double *,long double,long),&_ldexp>::call
_o__ldlog = ?call@?$wrapped_invoker@P6AOOH@Z$1?_ldlog@@YAOOH@Z@@SAOOH@Z ; wrapped_invoker<long double (__cdecl*)(long double,int),&_ldlog>::call
_o__ldpcomp = ?call@?$wrapped_invoker@P6AHOO@Z$1?_ldpcomp@@YAHOO@Z@@SAHOO@Z ; wrapped_invoker<int (__cdecl*)(long double,long double),&_ldpcomp>::call
_o__ldpoly = ?call@?$wrapped_invoker@P6AOOPEBOH@Z$1?_ldpoly@@YAOO0H@Z@@SAOOPEBOH@Z ; wrapped_invoker<long double (__cdecl*)(long double,long double const *,int),&_ldpoly>::call
_o__ldscale = ?call@?$wrapped_invoker@P6AFPEAOJ@Z$1?_ldscale@@YAF0J@Z@@SAFPEAOJ@Z ; wrapped_invoker<short (__cdecl*)(long double *,long),&_ldscale>::call
_o__ldsign = ?call@?$wrapped_invoker@P6AHO@Z$1?_ldsign@@YAHO@Z@@SAHO@Z ; wrapped_invoker<int (__cdecl*)(long double),&_ldsign>::call
_o__ldsin = ?call@?$wrapped_invoker@P6AOOI@Z$1?_ldsin@@YAOOI@Z@@SAOOI@Z ; wrapped_invoker<long double (__cdecl*)(long double,unsigned int),&_ldsin>::call
_o__ldtest = ?call@?$wrapped_invoker@P6AFPEAO@Z$1?_ldtest@@YAF0@Z@@SAFPEAO@Z ; wrapped_invoker<short (__cdecl*)(long double *),&_ldtest>::call
_o__ldunscale = ?call@?$wrapped_invoker@P6AFPEAFPEAO@Z$1?_ldunscale@@YAF01@Z@@SAFPEAFPEAO@Z ; wrapped_invoker<short (__cdecl*)(short *,long double *),&_ldunscale>::call
_o__lfind = ?call@?$wrapped_invoker@P6APEAXPEBX0PEAIIP6AH00@Z@Z$1?_lfind@@YAPEAX001I2@Z@@SAPEAXPEBX0PEAIIP6AH00@Z@Z ; wrapped_invoker<void * (__cdecl*)(void const *,void const *,unsigned int *,unsigned int,int (__cdecl*)(void const *,void const *)),&_lfind>::call
_o__lfind_s = ?call@?$wrapped_invoker@P6APEAXPEBX0PEAI_KP6AHPEAX00@Z3@Z$1?_lfind_s@@YAPEAX001243@Z@@SAPEAXPEBX0PEAI_KP6AHPEAX00@Z3@Z ; wrapped_invoker<void * (__cdecl*)(void const *,void const *,unsigned int *,unsigned __int64,int (__cdecl*)(void *,void const *,void const *),void *),&_lfind_s>::call
_o__loaddll = ?call@?$wrapped_invoker@P6A_JPEAD@Z$1?_loaddll@@YA_J0@Z@@SA_JPEAD@Z ; wrapped_invoker<__int64 (__cdecl*)(char *),&_loaddll>::call
_o__localtime32 = ?call@?$wrapped_invoker@P6APEAUtm@@PEBJ@Z$1?_localtime32@@YAPEAU1@0@Z@@SAPEAUtm@@PEBJ@Z ; wrapped_invoker<tm * (__cdecl*)(long const *),&_localtime32>::call
_o__localtime32_s = ?call@?$wrapped_invoker@P6AHPEAUtm@@PEBJ@Z$1?_localtime32_s@@YAH01@Z@@SAHPEAUtm@@PEBJ@Z ; wrapped_invoker<int (__cdecl*)(tm *,long const *),&_localtime32_s>::call
_o__localtime64 = ?call@?$wrapped_invoker@P6APEAUtm@@PEB_J@Z$1?_localtime64@@YAPEAU1@0@Z@@SAPEAUtm@@PEB_J@Z ; wrapped_invoker<tm * (__cdecl*)(__int64 const *),&_localtime64>::call
_o__localtime64_s = ?call@?$wrapped_invoker@P6AHPEAUtm@@PEB_J@Z$1?_localtime64_s@@YAH01@Z@@SAHPEAUtm@@PEB_J@Z ; wrapped_invoker<int (__cdecl*)(tm *,__int64 const *),&_localtime64_s>::call
_o__lock_file = ?call@?$wrapped_invoker@P6AXPEAU_iobuf@@@Z$1?_lock_file@@YAX0@Z@@SAXPEAU_iobuf@@@Z ; wrapped_invoker<void (__cdecl*)(_iobuf *),&_lock_file>::call
_o__locking = ?call@?$wrapped_invoker@P6AHHHJ@Z$1?_locking@@YAHHHJ@Z@@SAHHHJ@Z ; wrapped_invoker<int (__cdecl*)(int,int,long),&_locking>::call
_o__logb = ?call@?$wrapped_invoker@P6ANN@Z$1?_logb@@YANN@Z@@SANN@Z ; wrapped_invoker<double (__cdecl*)(double),&_logb>::call
_o__logbf = ?call@?$wrapped_invoker@P6AMM@Z$1?_logbf@@YAMM@Z@@SAMM@Z ; wrapped_invoker<float (__cdecl*)(float),&_logbf>::call
_o__lsearch = ?call@?$wrapped_invoker@P6APEAXPEBXPEAXPEAIIP6AH00@Z@Z$1?_lsearch@@YAPEAX012I3@Z@@SAPEAXPEBXPEAXPEAIIP6AH00@Z@Z ; wrapped_invoker<void * (__cdecl*)(void const *,void *,unsigned int *,unsigned int,int (__cdecl*)(void const *,void const *)),&_lsearch>::call
_o__lsearch_s = ?call@?$wrapped_invoker@P6APEAXPEBXPEAXPEAI_KP6AH100@Z1@Z$1?_lsearch_s@@YAPEAX012341@Z@@SAPEAXPEBXPEAXPEAI_KP6AH100@Z1@Z ; wrapped_invoker<void * (__cdecl*)(void const *,void *,unsigned int *,unsigned __int64,int (__cdecl*)(void *,void const *,void const *),void *),&_lsearch_s>::call
_o__lseek = ?call@?$wrapped_invoker@P6AJHJH@Z$1?_lseek@@YAJHJH@Z@@SAJHJH@Z ; wrapped_invoker<long (__cdecl*)(int,long,int),&_lseek>::call
_o__lseeki64 = ?call@?$wrapped_invoker@P6A_JH_JH@Z$1?_lseeki64@@YA_JH0H@Z@@SA_JH_JH@Z ; wrapped_invoker<__int64 (__cdecl*)(int,__int64,int),&_lseeki64>::call
_o__ltoa = ?call@?$wrapped_invoker@P6APEADJPEADH@Z$1?_ltoa@@YAPEADJ0H@Z@@SAPEADJPEADH@Z ; wrapped_invoker<char * (__cdecl*)(long,char *,int),&_ltoa>::call
_o__ltoa_s = ?call@?$wrapped_invoker@P6AHJPEAD_KH@Z$1?_ltoa_s@@YAHJ01H@Z@@SAHJPEAD_KH@Z ; wrapped_invoker<int (__cdecl*)(long,char *,unsigned __int64,int),&_ltoa_s>::call
_o__ltow = ?call@?$wrapped_invoker@P6APEA_WJPEA_WH@Z$1?_ltow@@YAPEA_WJ0H@Z@@SAPEA_WJPEA_WH@Z ; wrapped_invoker<wchar_t * (__cdecl*)(long,wchar_t *,int),&_ltow>::call
_o__ltow_s = ?call@?$wrapped_invoker@P6AHJPEA_W_KH@Z$1?_ltow_s@@YAHJ01H@Z@@SAHJPEA_W_KH@Z ; wrapped_invoker<int (__cdecl*)(long,wchar_t *,unsigned __int64,int),&_ltow_s>::call
_o__makepath = ?call@?$wrapped_invoker@P6AXPEADPEBD111@Z$1?_makepath@@YAX01111@Z@@SAXPEADPEBD111@Z ; wrapped_invoker<void (__cdecl*)(char *,char const *,char const *,char const *,char const *),&_makepath>::call
_o__makepath_s = ?call@?$wrapped_invoker@P6AHPEAD_KPEBD222@Z$1?_makepath_s@@YAH012222@Z@@SAHPEAD_KPEBD222@Z ; wrapped_invoker<int (__cdecl*)(char *,unsigned __int64,char const *,char const *,char const *,char const *),&_makepath_s>::call
_o__malloc_base = ?call@?$wrapped_invoker@P6APEAX_K@Z$1?_malloc_base@@YAPEAX0@Z@@SAPEAX_K@Z ; wrapped_invoker<void * (__cdecl*)(unsigned __int64),&_malloc_base>::call
_o__mbbtombc = ?call@?$wrapped_invoker@P6AII@Z$1?_mbbtombc@@YAII@Z@@SAII@Z ; wrapped_invoker<unsigned int (__cdecl*)(unsigned int),&_mbbtombc>::call
_o__mbbtombc_l = ?call@?$wrapped_invoker@P6AIIPEAU__crt_locale_pointers@@@Z$1?_mbbtombc_l@@YAII0@Z@@SAIIPEAU__crt_locale_pointers@@@Z ; wrapped_invoker<unsigned int (__cdecl*)(unsigned int,__crt_locale_pointers *),&_mbbtombc_l>::call
_o__mbbtype = ?call@?$wrapped_invoker@P6AHEH@Z$1?_mbbtype@@YAHEH@Z@@SAHEH@Z ; wrapped_invoker<int (__cdecl*)(unsigned char,int),&_mbbtype>::call
_o__mbbtype_l = ?call@?$wrapped_invoker@P6AHEHPEAU__crt_locale_pointers@@@Z$1?_mbbtype_l@@YAHEH0@Z@@SAHEHPEAU__crt_locale_pointers@@@Z ; wrapped_invoker<int (__cdecl*)(unsigned char,int,__crt_locale_pointers *),&_mbbtype_l>::call
_o__mbccpy = ?call@?$wrapped_invoker@P6AXPEAEPEBE@Z$1?_mbccpy@@YAX01@Z@@SAXPEAEPEBE@Z ; wrapped_invoker<void (__cdecl*)(unsigned char *,unsigned char const *),&_mbccpy>::call
_o__mbccpy_l = ?call@?$wrapped_invoker@P6AXPEAEPEBEPEAU__crt_locale_pointers@@@Z$1?_mbccpy_l@@YAX012@Z@@SAXPEAEPEBEPEAU__crt_locale_pointers@@@Z ; wrapped_invoker<void (__cdecl*)(unsigned char *,unsigned char const *,__crt_locale_pointers *),&_mbccpy_l>::call
_o__mbccpy_s = ?call@?$wrapped_invoker@P6AHPEAE_KPEAHPEBE@Z$1?_mbccpy_s@@YAH0123@Z@@SAHPEAE_KPEAHPEBE@Z ; wrapped_invoker<int (__cdecl*)(unsigned char *,unsigned __int64,int *,unsigned char const *),&_mbccpy_s>::call
_o__mbccpy_s_l = ?call@?$wrapped_invoker@P6AHPEAE_KPEAHPEBEPEAU__crt_locale_pointers@@@Z$1?_mbccpy_s_l@@YAH01234@Z@@SAHPEAE_KPEAHPEBEPEAU__crt_locale_pointers@@@Z ; wrapped_invoker<int (__cdecl*)(unsigned char *,unsigned __int64,int *,unsigned char const *,__crt_locale_pointers *),&_mbccpy_s_l>::call
_o__mbcjistojms = ?call@?$wrapped_invoker@P6AII@Z$1?_mbcjistojms@@YAII@Z@@SAII@Z ; wrapped_invoker<unsigned int (__cdecl*)(unsigned int),&_mbcjistojms>::call
_o__mbcjistojms_l = ?call@?$wrapped_invoker@P6AIIPEAU__crt_locale_pointers@@@Z$1?_mbcjistojms_l@@YAII0@Z@@SAIIPEAU__crt_locale_pointers@@@Z ; wrapped_invoker<unsigned int (__cdecl*)(unsigned int,__crt_locale_pointers *),&_mbcjistojms_l>::call
_o__mbcjmstojis = ?call@?$wrapped_invoker@P6AII@Z$1?_mbcjmstojis@@YAII@Z@@SAII@Z ; wrapped_invoker<unsigned int (__cdecl*)(unsigned int),&_mbcjmstojis>::call
_o__mbcjmstojis_l = ?call@?$wrapped_invoker@P6AIIPEAU__crt_locale_pointers@@@Z$1?_mbcjmstojis_l@@YAII0@Z@@SAIIPEAU__crt_locale_pointers@@@Z ; wrapped_invoker<unsigned int (__cdecl*)(unsigned int,__crt_locale_pointers *),&_mbcjmstojis_l>::call
_o__mbclen = ?call@?$wrapped_invoker@P6A_KPEBE@Z$1?_mbclen@@YA_K0@Z@@SA_KPEBE@Z ; wrapped_invoker<unsigned __int64 (__cdecl*)(unsigned char const *),&_mbclen>::call
_o__mbclen_l = ?call@?$wrapped_invoker@P6A_KPEBEPEAU__crt_locale_pointers@@@Z$1?_mbclen_l@@YA_K01@Z@@SA_KPEBEPEAU__crt_locale_pointers@@@Z ; wrapped_invoker<unsigned __int64 (__cdecl*)(unsigned char const *,__crt_locale_pointers *),&_mbclen_l>::call
_o__mbctohira = ?call@?$wrapped_invoker@P6AII@Z$1?_mbctohira@@YAII@Z@@SAII@Z ; wrapped_invoker<unsigned int (__cdecl*)(unsigned int),&_mbctohira>::call
_o__mbctohira_l = ?call@?$wrapped_invoker@P6AIIPEAU__crt_locale_pointers@@@Z$1?_mbctohira_l@@YAII0@Z@@SAIIPEAU__crt_locale_pointers@@@Z ; wrapped_invoker<unsigned int (__cdecl*)(unsigned int,__crt_locale_pointers *),&_mbctohira_l>::call
_o__mbctokata = ?call@?$wrapped_invoker@P6AII@Z$1?_mbctokata@@YAII@Z@@SAII@Z ; wrapped_invoker<unsigned int (__cdecl*)(unsigned int),&_mbctokata>::call
_o__mbctokata_l = ?call@?$wrapped_invoker@P6AIIPEAU__crt_locale_pointers@@@Z$1?_mbctokata_l@@YAII0@Z@@SAIIPEAU__crt_locale_pointers@@@Z ; wrapped_invoker<unsigned int (__cdecl*)(unsigned int,__crt_locale_pointers *),&_mbctokata_l>::call
_o__mbctolower = ?call@?$wrapped_invoker@P6AII@Z$1?_mbctolower@@YAII@Z@@SAII@Z ; wrapped_invoker<unsigned int (__cdecl*)(unsigned int),&_mbctolower>::call
_o__mbctolower_l = ?call@?$wrapped_invoker@P6AIIPEAU__crt_locale_pointers@@@Z$1?_mbctolower_l@@YAII0@Z@@SAIIPEAU__crt_locale_pointers@@@Z ; wrapped_invoker<unsigned int (__cdecl*)(unsigned int,__crt_locale_pointers *),&_mbctolower_l>::call
_o__mbctombb = ?call@?$wrapped_invoker@P6AII@Z$1?_mbctombb@@YAII@Z@@SAII@Z ; wrapped_invoker<unsigned int (__cdecl*)(unsigned int),&_mbctombb>::call
_o__mbctombb_l = ?call@?$wrapped_invoker@P6AIIPEAU__crt_locale_pointers@@@Z$1?_mbctombb_l@@YAII0@Z@@SAIIPEAU__crt_locale_pointers@@@Z ; wrapped_invoker<unsigned int (__cdecl*)(unsigned int,__crt_locale_pointers *),&_mbctombb_l>::call
_o__mbctoupper = ?call@?$wrapped_invoker@P6AII@Z$1?_mbctoupper@@YAII@Z@@SAII@Z ; wrapped_invoker<unsigned int (__cdecl*)(unsigned int),&_mbctoupper>::call
_o__mbctoupper_l = ?call@?$wrapped_invoker@P6AIIPEAU__crt_locale_pointers@@@Z$1?_mbctoupper_l@@YAII0@Z@@SAIIPEAU__crt_locale_pointers@@@Z ; wrapped_invoker<unsigned int (__cdecl*)(unsigned int,__crt_locale_pointers *),&_mbctoupper_l>::call
_o__mblen_l = ?call@?$wrapped_invoker@P6AHPEBD_KPEAU__crt_locale_pointers@@@Z$1?_mblen_l@@YAH012@Z@@SAHPEBD_KPEAU__crt_locale_pointers@@@Z ; wrapped_invoker<int (__cdecl*)(char const *,unsigned __int64,__crt_locale_pointers *),&_mblen_l>::call
_o__mbsbtype = ?call@?$wrapped_invoker@P6AHPEBE_K@Z$1?_mbsbtype@@YAH01@Z@@SAHPEBE_K@Z ; wrapped_invoker<int (__cdecl*)(unsigned char const *,unsigned __int64),&_mbsbtype>::call
_o__mbsbtype_l = ?call@?$wrapped_invoker@P6AHPEBE_KPEAU__crt_locale_pointers@@@Z$1?_mbsbtype_l@@YAH012@Z@@SAHPEBE_KPEAU__crt_locale_pointers@@@Z ; wrapped_invoker<int (__cdecl*)(unsigned char const *,unsigned __int64,__crt_locale_pointers *),&_mbsbtype_l>::call
_o__mbscat_s = ?call@?$wrapped_invoker@P6AHPEAE_KPEBE@Z$1?_mbscat_s@@YAH012@Z@@SAHPEAE_KPEBE@Z ; wrapped_invoker<int (__cdecl*)(unsigned char *,unsigned __int64,unsigned char const *),&_mbscat_s>::call
_o__mbscat_s_l = ?call@?$wrapped_invoker@P6AHPEAE_KPEBEPEAU__crt_locale_pointers@@@Z$1?_mbscat_s_l@@YAH0123@Z@@SAHPEAE_KPEBEPEAU__crt_locale_pointers@@@Z ; wrapped_invoker<int (__cdecl*)(unsigned char *,unsigned __int64,unsigned char const *,__crt_locale_pointers *),&_mbscat_s_l>::call
_o__mbschr = ?call@?$wrapped_invoker@P6APEBEPEBEI@Z$1?_mbschr@@YAPEBE0I@Z@@SAPEBEPEBEI@Z ; wrapped_invoker<unsigned char const * (__cdecl*)(unsigned char const *,unsigned int),&_mbschr>::call
_o__mbschr_l = ?call@?$wrapped_invoker@P6APEBEPEBEIPEAU__crt_locale_pointers@@@Z$1?_mbschr_l@@YAPEBE0I1@Z@@SAPEBEPEBEIPEAU__crt_locale_pointers@@@Z ; wrapped_invoker<unsigned char const * (__cdecl*)(unsigned char const *,unsigned int,__crt_locale_pointers *),&_mbschr_l>::call
_o__mbscmp = ?call@?$wrapped_invoker@P6AHPEBE0@Z$1?_mbscmp@@YAH00@Z@@SAHPEBE0@Z ; wrapped_invoker<int (__cdecl*)(unsigned char const *,unsigned char const *),&_mbscmp>::call
_o__mbscmp_l = ?call@?$wrapped_invoker@P6AHPEBE0PEAU__crt_locale_pointers@@@Z$1?_mbscmp_l@@YAH001@Z@@SAHPEBE0PEAU__crt_locale_pointers@@@Z ; wrapped_invoker<int (__cdecl*)(unsigned char const *,unsigned char const *,__crt_locale_pointers *),&_mbscmp_l>::call
_o__mbscoll = ?call@?$wrapped_invoker@P6AHPEBE0@Z$1?_mbscoll@@YAH00@Z@@SAHPEBE0@Z ; wrapped_invoker<int (__cdecl*)(unsigned char const *,unsigned char const *),&_mbscoll>::call
_o__mbscoll_l = ?call@?$wrapped_invoker@P6AHPEBE0PEAU__crt_locale_pointers@@@Z$1?_mbscoll_l@@YAH001@Z@@SAHPEBE0PEAU__crt_locale_pointers@@@Z ; wrapped_invoker<int (__cdecl*)(unsigned char const *,unsigned char const *,__crt_locale_pointers *),&_mbscoll_l>::call
_o__mbscpy_s = ?call@?$wrapped_invoker@P6AHPEAE_KPEBE@Z$1?_mbscpy_s@@YAH012@Z@@SAHPEAE_KPEBE@Z ; wrapped_invoker<int (__cdecl*)(unsigned char *,unsigned __int64,unsigned char const *),&_mbscpy_s>::call
_o__mbscpy_s_l = ?call@?$wrapped_invoker@P6AHPEAE_KPEBEPEAU__crt_locale_pointers@@@Z$1?_mbscpy_s_l@@YAH0123@Z@@SAHPEAE_KPEBEPEAU__crt_locale_pointers@@@Z ; wrapped_invoker<int (__cdecl*)(unsigned char *,unsigned __int64,unsigned char const *,__crt_locale_pointers *),&_mbscpy_s_l>::call
_o__mbscspn = ?call@?$wrapped_invoker@P6A_KPEBE0@Z$1?_mbscspn@@YA_K00@Z@@SA_KPEBE0@Z ; wrapped_invoker<unsigned __int64 (__cdecl*)(unsigned char const *,unsigned char const *),&_mbscspn>::call
_o__mbscspn_l = ?call@?$wrapped_invoker@P6A_KPEBE0PEAU__crt_locale_pointers@@@Z$1?_mbscspn_l@@YA_K001@Z@@SA_KPEBE0PEAU__crt_locale_pointers@@@Z ; wrapped_invoker<unsigned __int64 (__cdecl*)(unsigned char const *,unsigned char const *,__crt_locale_pointers *),&_mbscspn_l>::call
_o__mbsdec = ?call@?$wrapped_invoker@P6APEAEPEBE0@Z$1?_mbsdec@@YAPEAE00@Z@@SAPEAEPEBE0@Z ; wrapped_invoker<unsigned char * (__cdecl*)(unsigned char const *,unsigned char const *),&_mbsdec>::call
_o__mbsdec_l = ?call@?$wrapped_invoker@P6APEAEPEBE0PEAU__crt_locale_pointers@@@Z$1?_mbsdec_l@@YAPEAE001@Z@@SAPEAEPEBE0PEAU__crt_locale_pointers@@@Z ; wrapped_invoker<unsigned char * (__cdecl*)(unsigned char const *,unsigned char const *,__crt_locale_pointers *),&_mbsdec_l>::call
_o__mbsicmp = ?call@?$wrapped_invoker@P6AHPEBE0@Z$1?_mbsicmp@@YAH00@Z@@SAHPEBE0@Z ; wrapped_invoker<int (__cdecl*)(unsigned char const *,unsigned char const *),&_mbsicmp>::call
_o__mbsicmp_l = ?call@?$wrapped_invoker@P6AHPEBE0PEAU__crt_locale_pointers@@@Z$1?_mbsicmp_l@@YAH001@Z@@SAHPEBE0PEAU__crt_locale_pointers@@@Z ; wrapped_invoker<int (__cdecl*)(unsigned char const *,unsigned char const *,__crt_locale_pointers *),&_mbsicmp_l>::call
_o__mbsicoll = ?call@?$wrapped_invoker@P6AHPEBE0@Z$1?_mbsicoll@@YAH00@Z@@SAHPEBE0@Z ; wrapped_invoker<int (__cdecl*)(unsigned char const *,unsigned char const *),&_mbsicoll>::call
_o__mbsicoll_l = ?call@?$wrapped_invoker@P6AHPEBE0PEAU__crt_locale_pointers@@@Z$1?_mbsicoll_l@@YAH001@Z@@SAHPEBE0PEAU__crt_locale_pointers@@@Z ; wrapped_invoker<int (__cdecl*)(unsigned char const *,unsigned char const *,__crt_locale_pointers *),&_mbsicoll_l>::call
_o__mbsinc = ?call@?$wrapped_invoker@P6APEAEPEBE@Z$1?_mbsinc@@YAPEAE0@Z@@SAPEAEPEBE@Z ; wrapped_invoker<unsigned char * (__cdecl*)(unsigned char const *),&_mbsinc>::call
_o__mbsinc_l = ?call@?$wrapped_invoker@P6APEAEPEBEPEAU__crt_locale_pointers@@@Z$1?_mbsinc_l@@YAPEAE01@Z@@SAPEAEPEBEPEAU__crt_locale_pointers@@@Z ; wrapped_invoker<unsigned char * (__cdecl*)(unsigned char const *,__crt_locale_pointers *),&_mbsinc_l>::call
_o__mbslen = ?call@?$wrapped_invoker@P6A_KPEBE@Z$1?_mbslen@@YA_K0@Z@@SA_KPEBE@Z ; wrapped_invoker<unsigned __int64 (__cdecl*)(unsigned char const *),&_mbslen>::call
_o__mbslen_l = ?call@?$wrapped_invoker@P6A_KPEBEPEAU__crt_locale_pointers@@@Z$1?_mbslen_l@@YA_K01@Z@@SA_KPEBEPEAU__crt_locale_pointers@@@Z ; wrapped_invoker<unsigned __int64 (__cdecl*)(unsigned char const *,__crt_locale_pointers *),&_mbslen_l>::call
_o__mbslwr = ?call@?$wrapped_invoker@P6APEAEPEAE@Z$1?_mbslwr@@YAPEAE0@Z@@SAPEAEPEAE@Z ; wrapped_invoker<unsigned char * (__cdecl*)(unsigned char *),&_mbslwr>::call
_o__mbslwr_l = ?call@?$wrapped_invoker@P6APEAEPEAEPEAU__crt_locale_pointers@@@Z$1?_mbslwr_l@@YAPEAE01@Z@@SAPEAEPEAEPEAU__crt_locale_pointers@@@Z ; wrapped_invoker<unsigned char * (__cdecl*)(unsigned char *,__crt_locale_pointers *),&_mbslwr_l>::call
_o__mbslwr_s = ?call@?$wrapped_invoker@P6AHPEAE_K@Z$1?_mbslwr_s@@YAH01@Z@@SAHPEAE_K@Z ; wrapped_invoker<int (__cdecl*)(unsigned char *,unsigned __int64),&_mbslwr_s>::call
_o__mbslwr_s_l = ?call@?$wrapped_invoker@P6AHPEAE_KPEAU__crt_locale_pointers@@@Z$1?_mbslwr_s_l@@YAH012@Z@@SAHPEAE_KPEAU__crt_locale_pointers@@@Z ; wrapped_invoker<int (__cdecl*)(unsigned char *,unsigned __int64,__crt_locale_pointers *),&_mbslwr_s_l>::call
_o__mbsnbcat = ?call@?$wrapped_invoker@P6APEAEPEAEPEBE_K@Z$1?_mbsnbcat@@YAPEAE012@Z@@SAPEAEPEAEPEBE_K@Z ; wrapped_invoker<unsigned char * (__cdecl*)(unsigned char *,unsigned char const *,unsigned __int64),&_mbsnbcat>::call
_o__mbsnbcat_l = ?call@?$wrapped_invoker@P6APEAEPEAEPEBE_KPEAU__crt_locale_pointers@@@Z$1?_mbsnbcat_l@@YAPEAE0123@Z@@SAPEAEPEAEPEBE_KPEAU__crt_locale_pointers@@@Z ; wrapped_invoker<unsigned char * (__cdecl*)(unsigned char *,unsigned char const *,unsigned __int64,__crt_locale_pointers *),&_mbsnbcat_l>::call
_o__mbsnbcat_s = ?call@?$wrapped_invoker@P6AHPEAE_KPEBE1@Z$1?_mbsnbcat_s@@YAH0121@Z@@SAHPEAE_KPEBE1@Z ; wrapped_invoker<int (__cdecl*)(unsigned char *,unsigned __int64,unsigned char const *,unsigned __int64),&_mbsnbcat_s>::call
_o__mbsnbcat_s_l = ?call@?$wrapped_invoker@P6AHPEAE_KPEBE1PEAU__crt_locale_pointers@@@Z$1?_mbsnbcat_s_l@@YAH01213@Z@@SAHPEAE_KPEBE1PEAU__crt_locale_pointers@@@Z ; wrapped_invoker<int (__cdecl*)(unsigned char *,unsigned __int64,unsigned char const *,unsigned __int64,__crt_locale_pointers *),&_mbsnbcat_s_l>::call
_o__mbsnbcmp = ?call@?$wrapped_invoker@P6AHPEBE0_K@Z$1?_mbsnbcmp@@YAH001@Z@@SAHPEBE0_K@Z ; wrapped_invoker<int (__cdecl*)(unsigned char const *,unsigned char const *,unsigned __int64),&_mbsnbcmp>::call
_o__mbsnbcmp_l = ?call@?$wrapped_invoker@P6AHPEBE0_KPEAU__crt_locale_pointers@@@Z$1?_mbsnbcmp_l@@YAH0012@Z@@SAHPEBE0_KPEAU__crt_locale_pointers@@@Z ; wrapped_invoker<int (__cdecl*)(unsigned char const *,unsigned char const *,unsigned __int64,__crt_locale_pointers *),&_mbsnbcmp_l>::call
_o__mbsnbcnt = ?call@?$wrapped_invoker@P6A_KPEBE_K@Z$1?_mbsnbcnt@@YA_K01@Z@@SA_KPEBE_K@Z ; wrapped_invoker<unsigned __int64 (__cdecl*)(unsigned char const *,unsigned __int64),&_mbsnbcnt>::call
_o__mbsnbcnt_l = ?call@?$wrapped_invoker@P6A_KPEBE_KPEAU__crt_locale_pointers@@@Z$1?_mbsnbcnt_l@@YA_K012@Z@@SA_KPEBE_KPEAU__crt_locale_pointers@@@Z ; wrapped_invoker<unsigned __int64 (__cdecl*)(unsigned char const *,unsigned __int64,__crt_locale_pointers *),&_mbsnbcnt_l>::call
_o__mbsnbcoll = ?call@?$wrapped_invoker@P6AHPEBE0_K@Z$1?_mbsnbcoll@@YAH001@Z@@SAHPEBE0_K@Z ; wrapped_invoker<int (__cdecl*)(unsigned char const *,unsigned char const *,unsigned __int64),&_mbsnbcoll>::call
_o__mbsnbcoll_l = ?call@?$wrapped_invoker@P6AHPEBE0_KPEAU__crt_locale_pointers@@@Z$1?_mbsnbcoll_l@@YAH0012@Z@@SAHPEBE0_KPEAU__crt_locale_pointers@@@Z ; wrapped_invoker<int (__cdecl*)(unsigned char const *,unsigned char const *,unsigned __int64,__crt_locale_pointers *),&_mbsnbcoll_l>::call
_o__mbsnbcpy = ?call@?$wrapped_invoker@P6APEAEPEAEPEBE_K@Z$1?_mbsnbcpy@@YAPEAE012@Z@@SAPEAEPEAEPEBE_K@Z ; wrapped_invoker<unsigned char * (__cdecl*)(unsigned char *,unsigned char const *,unsigned __int64),&_mbsnbcpy>::call
_o__mbsnbcpy_l = ?call@?$wrapped_invoker@P6APEAEPEAEPEBE_KPEAU__crt_locale_pointers@@@Z$1?_mbsnbcpy_l@@YAPEAE0123@Z@@SAPEAEPEAEPEBE_KPEAU__crt_locale_pointers@@@Z ; wrapped_invoker<unsigned char * (__cdecl*)(unsigned char *,unsigned char const *,unsigned __int64,__crt_locale_pointers *),&_mbsnbcpy_l>::call
_o__mbsnbcpy_s = ?call@?$wrapped_invoker@P6AHPEAE_KPEBE1@Z$1?_mbsnbcpy_s@@YAH0121@Z@@SAHPEAE_KPEBE1@Z ; wrapped_invoker<int (__cdecl*)(unsigned char *,unsigned __int64,unsigned char const *,unsigned __int64),&_mbsnbcpy_s>::call
_o__mbsnbcpy_s_l = ?call@?$wrapped_invoker@P6AHPEAE_KPEBE1PEAU__crt_locale_pointers@@@Z$1?_mbsnbcpy_s_l@@YAH01213@Z@@SAHPEAE_KPEBE1PEAU__crt_locale_pointers@@@Z ; wrapped_invoker<int (__cdecl*)(unsigned char *,unsigned __int64,unsigned char const *,unsigned __int64,__crt_locale_pointers *),&_mbsnbcpy_s_l>::call
_o__mbsnbicmp = ?call@?$wrapped_invoker@P6AHPEBE0_K@Z$1?_mbsnbicmp@@YAH001@Z@@SAHPEBE0_K@Z ; wrapped_invoker<int (__cdecl*)(unsigned char const *,unsigned char const *,unsigned __int64),&_mbsnbicmp>::call
_o__mbsnbicmp_l = ?call@?$wrapped_invoker@P6AHPEBE0_KPEAU__crt_locale_pointers@@@Z$1?_mbsnbicmp_l@@YAH0012@Z@@SAHPEBE0_KPEAU__crt_locale_pointers@@@Z ; wrapped_invoker<int (__cdecl*)(unsigned char const *,unsigned char const *,unsigned __int64,__crt_locale_pointers *),&_mbsnbicmp_l>::call
_o__mbsnbicoll = ?call@?$wrapped_invoker@P6AHPEBE0_K@Z$1?_mbsnbicoll@@YAH001@Z@@SAHPEBE0_K@Z ; wrapped_invoker<int (__cdecl*)(unsigned char const *,unsigned char const *,unsigned __int64),&_mbsnbicoll>::call
_o__mbsnbicoll_l = ?call@?$wrapped_invoker@P6AHPEBE0_KPEAU__crt_locale_pointers@@@Z$1?_mbsnbicoll_l@@YAH0012@Z@@SAHPEBE0_KPEAU__crt_locale_pointers@@@Z ; wrapped_invoker<int (__cdecl*)(unsigned char const *,unsigned char const *,unsigned __int64,__crt_locale_pointers *),&_mbsnbicoll_l>::call
_o__mbsnbset = ?call@?$wrapped_invoker@P6APEAEPEAEI_K@Z$1?_mbsnbset@@YAPEAE0I1@Z@@SAPEAEPEAEI_K@Z ; wrapped_invoker<unsigned char * (__cdecl*)(unsigned char *,unsigned int,unsigned __int64),&_mbsnbset>::call
_o__mbsnbset_l = ?call@?$wrapped_invoker@P6APEAEPEAEI_KPEAU__crt_locale_pointers@@@Z$1?_mbsnbset_l@@YAPEAE0I12@Z@@SAPEAEPEAEI_KPEAU__crt_locale_pointers@@@Z ; wrapped_invoker<unsigned char * (__cdecl*)(unsigned char *,unsigned int,unsigned __int64,__crt_locale_pointers *),&_mbsnbset_l>::call
_o__mbsnbset_s = ?call@?$wrapped_invoker@P6AHPEAE_KI1@Z$1?_mbsnbset_s@@YAH01I1@Z@@SAHPEAE_KI1@Z ; wrapped_invoker<int (__cdecl*)(unsigned char *,unsigned __int64,unsigned int,unsigned __int64),&_mbsnbset_s>::call
_o__mbsnbset_s_l = ?call@?$wrapped_invoker@P6AHPEAE_KI1PEAU__crt_locale_pointers@@@Z$1?_mbsnbset_s_l@@YAH01I12@Z@@SAHPEAE_KI1PEAU__crt_locale_pointers@@@Z ; wrapped_invoker<int (__cdecl*)(unsigned char *,unsigned __int64,unsigned int,unsigned __int64,__crt_locale_pointers *),&_mbsnbset_s_l>::call
_o__mbsncat = ?call@?$wrapped_invoker@P6APEAEPEAEPEBE_K@Z$1?_mbsncat@@YAPEAE012@Z@@SAPEAEPEAEPEBE_K@Z ; wrapped_invoker<unsigned char * (__cdecl*)(unsigned char *,unsigned char const *,unsigned __int64),&_mbsncat>::call
_o__mbsncat_l = ?call@?$wrapped_invoker@P6APEAEPEAEPEBE_KPEAU__crt_locale_pointers@@@Z$1?_mbsncat_l@@YAPEAE0123@Z@@SAPEAEPEAEPEBE_KPEAU__crt_locale_pointers@@@Z ; wrapped_invoker<unsigned char * (__cdecl*)(unsigned char *,unsigned char const *,unsigned __int64,__crt_locale_pointers *),&_mbsncat_l>::call
_o__mbsncat_s = ?call@?$wrapped_invoker@P6AHPEAE_KPEBE1@Z$1?_mbsncat_s@@YAH0121@Z@@SAHPEAE_KPEBE1@Z ; wrapped_invoker<int (__cdecl*)(unsigned char *,unsigned __int64,unsigned char const *,unsigned __int64),&_mbsncat_s>::call
_o__mbsncat_s_l = ?call@?$wrapped_invoker@P6AHPEAE_KPEBE1PEAU__crt_locale_pointers@@@Z$1?_mbsncat_s_l@@YAH01213@Z@@SAHPEAE_KPEBE1PEAU__crt_locale_pointers@@@Z ; wrapped_invoker<int (__cdecl*)(unsigned char *,unsigned __int64,unsigned char const *,unsigned __int64,__crt_locale_pointers *),&_mbsncat_s_l>::call
_o__mbsnccnt = ?call@?$wrapped_invoker@P6A_KPEBE_K@Z$1?_mbsnccnt@@YA_K01@Z@@SA_KPEBE_K@Z ; wrapped_invoker<unsigned __int64 (__cdecl*)(unsigned char const *,unsigned __int64),&_mbsnccnt>::call
_o__mbsnccnt_l = ?call@?$wrapped_invoker@P6A_KPEBE_KPEAU__crt_locale_pointers@@@Z$1?_mbsnccnt_l@@YA_K012@Z@@SA_KPEBE_KPEAU__crt_locale_pointers@@@Z ; wrapped_invoker<unsigned __int64 (__cdecl*)(unsigned char const *,unsigned __int64,__crt_locale_pointers *),&_mbsnccnt_l>::call
_o__mbsncmp = ?call@?$wrapped_invoker@P6AHPEBE0_K@Z$1?_mbsncmp@@YAH001@Z@@SAHPEBE0_K@Z ; wrapped_invoker<int (__cdecl*)(unsigned char const *,unsigned char const *,unsigned __int64),&_mbsncmp>::call
_o__mbsncmp_l = ?call@?$wrapped_invoker@P6AHPEBE0_KPEAU__crt_locale_pointers@@@Z$1?_mbsncmp_l@@YAH0012@Z@@SAHPEBE0_KPEAU__crt_locale_pointers@@@Z ; wrapped_invoker<int (__cdecl*)(unsigned char const *,unsigned char const *,unsigned __int64,__crt_locale_pointers *),&_mbsncmp_l>::call
_o__mbsncoll = ?call@?$wrapped_invoker@P6AHPEBE0_K@Z$1?_mbsncoll@@YAH001@Z@@SAHPEBE0_K@Z ; wrapped_invoker<int (__cdecl*)(unsigned char const *,unsigned char const *,unsigned __int64),&_mbsncoll>::call
_o__mbsncoll_l = ?call@?$wrapped_invoker@P6AHPEBE0_KPEAU__crt_locale_pointers@@@Z$1?_mbsncoll_l@@YAH0012@Z@@SAHPEBE0_KPEAU__crt_locale_pointers@@@Z ; wrapped_invoker<int (__cdecl*)(unsigned char const *,unsigned char const *,unsigned __int64,__crt_locale_pointers *),&_mbsncoll_l>::call
_o__mbsncpy = ?call@?$wrapped_invoker@P6APEAEPEAEPEBE_K@Z$1?_mbsncpy@@YAPEAE012@Z@@SAPEAEPEAEPEBE_K@Z ; wrapped_invoker<unsigned char * (__cdecl*)(unsigned char *,unsigned char const *,unsigned __int64),&_mbsncpy>::call
_o__mbsncpy_l = ?call@?$wrapped_invoker@P6APEAEPEAEPEBE_KPEAU__crt_locale_pointers@@@Z$1?_mbsncpy_l@@YAPEAE0123@Z@@SAPEAEPEAEPEBE_KPEAU__crt_locale_pointers@@@Z ; wrapped_invoker<unsigned char * (__cdecl*)(unsigned char *,unsigned char const *,unsigned __int64,__crt_locale_pointers *),&_mbsncpy_l>::call
_o__mbsncpy_s = ?call@?$wrapped_invoker@P6AHPEAE_KPEBE1@Z$1?_mbsncpy_s@@YAH0121@Z@@SAHPEAE_KPEBE1@Z ; wrapped_invoker<int (__cdecl*)(unsigned char *,unsigned __int64,unsigned char const *,unsigned __int64),&_mbsncpy_s>::call
_o__mbsncpy_s_l = ?call@?$wrapped_invoker@P6AHPEAE_KPEBE1PEAU__crt_locale_pointers@@@Z$1?_mbsncpy_s_l@@YAH01213@Z@@SAHPEAE_KPEBE1PEAU__crt_locale_pointers@@@Z ; wrapped_invoker<int (__cdecl*)(unsigned char *,unsigned __int64,unsigned char const *,unsigned __int64,__crt_locale_pointers *),&_mbsncpy_s_l>::call
_o__mbsnextc = ?call@?$wrapped_invoker@P6AIPEBE@Z$1?_mbsnextc@@YAI0@Z@@SAIPEBE@Z ; wrapped_invoker<unsigned int (__cdecl*)(unsigned char const *),&_mbsnextc>::call
_o__mbsnextc_l = ?call@?$wrapped_invoker@P6AIPEBEPEAU__crt_locale_pointers@@@Z$1?_mbsnextc_l@@YAI01@Z@@SAIPEBEPEAU__crt_locale_pointers@@@Z ; wrapped_invoker<unsigned int (__cdecl*)(unsigned char const *,__crt_locale_pointers *),&_mbsnextc_l>::call
_o__mbsnicmp = ?call@?$wrapped_invoker@P6AHPEBE0_K@Z$1?_mbsnicmp@@YAH001@Z@@SAHPEBE0_K@Z ; wrapped_invoker<int (__cdecl*)(unsigned char const *,unsigned char const *,unsigned __int64),&_mbsnicmp>::call
_o__mbsnicmp_l = ?call@?$wrapped_invoker@P6AHPEBE0_KPEAU__crt_locale_pointers@@@Z$1?_mbsnicmp_l@@YAH0012@Z@@SAHPEBE0_KPEAU__crt_locale_pointers@@@Z ; wrapped_invoker<int (__cdecl*)(unsigned char const *,unsigned char const *,unsigned __int64,__crt_locale_pointers *),&_mbsnicmp_l>::call
_o__mbsnicoll = ?call@?$wrapped_invoker@P6AHPEBE0_K@Z$1?_mbsnicoll@@YAH001@Z@@SAHPEBE0_K@Z ; wrapped_invoker<int (__cdecl*)(unsigned char const *,unsigned char const *,unsigned __int64),&_mbsnicoll>::call
_o__mbsnicoll_l = ?call@?$wrapped_invoker@P6AHPEBE0_KPEAU__crt_locale_pointers@@@Z$1?_mbsnicoll_l@@YAH0012@Z@@SAHPEBE0_KPEAU__crt_locale_pointers@@@Z ; wrapped_invoker<int (__cdecl*)(unsigned char const *,unsigned char const *,unsigned __int64,__crt_locale_pointers *),&_mbsnicoll_l>::call
_o__mbsninc = ?call@?$wrapped_invoker@P6APEAEPEBE_K@Z$1?_mbsninc@@YAPEAE01@Z@@SAPEAEPEBE_K@Z ; wrapped_invoker<unsigned char * (__cdecl*)(unsigned char const *,unsigned __int64),&_mbsninc>::call
_o__mbsninc_l = ?call@?$wrapped_invoker@P6APEAEPEBE_KPEAU__crt_locale_pointers@@@Z$1?_mbsninc_l@@YAPEAE012@Z@@SAPEAEPEBE_KPEAU__crt_locale_pointers@@@Z ; wrapped_invoker<unsigned char * (__cdecl*)(unsigned char const *,unsigned __int64,__crt_locale_pointers *),&_mbsninc_l>::call
_o__mbsnlen = ?call@?$wrapped_invoker@P6A_KPEBE_K@Z$1?_mbsnlen@@YA_K01@Z@@SA_KPEBE_K@Z ; wrapped_invoker<unsigned __int64 (__cdecl*)(unsigned char const *,unsigned __int64),&_mbsnlen>::call
_o__mbsnlen_l = ?call@?$wrapped_invoker@P6A_KPEBE_KPEAU__crt_locale_pointers@@@Z$1?_mbsnlen_l@@YA_K012@Z@@SA_KPEBE_KPEAU__crt_locale_pointers@@@Z ; wrapped_invoker<unsigned __int64 (__cdecl*)(unsigned char const *,unsigned __int64,__crt_locale_pointers *),&_mbsnlen_l>::call
_o__mbsnset = ?call@?$wrapped_invoker@P6APEAEPEAEI_K@Z$1?_mbsnset@@YAPEAE0I1@Z@@SAPEAEPEAEI_K@Z ; wrapped_invoker<unsigned char * (__cdecl*)(unsigned char *,unsigned int,unsigned __int64),&_mbsnset>::call
_o__mbsnset_l = ?call@?$wrapped_invoker@P6APEAEPEAEI_KPEAU__crt_locale_pointers@@@Z$1?_mbsnset_l@@YAPEAE0I12@Z@@SAPEAEPEAEI_KPEAU__crt_locale_pointers@@@Z ; wrapped_invoker<unsigned char * (__cdecl*)(unsigned char *,unsigned int,unsigned __int64,__crt_locale_pointers *),&_mbsnset_l>::call
_o__mbsnset_s = ?call@?$wrapped_invoker@P6AHPEAE_KI1@Z$1?_mbsnset_s@@YAH01I1@Z@@SAHPEAE_KI1@Z ; wrapped_invoker<int (__cdecl*)(unsigned char *,unsigned __int64,unsigned int,unsigned __int64),&_mbsnset_s>::call
_o__mbsnset_s_l = ?call@?$wrapped_invoker@P6AHPEAE_KI1PEAU__crt_locale_pointers@@@Z$1?_mbsnset_s_l@@YAH01I12@Z@@SAHPEAE_KI1PEAU__crt_locale_pointers@@@Z ; wrapped_invoker<int (__cdecl*)(unsigned char *,unsigned __int64,unsigned int,unsigned __int64,__crt_locale_pointers *),&_mbsnset_s_l>::call
_o__mbspbrk = ?call@?$wrapped_invoker@P6APEBEPEBE0@Z$1?_mbspbrk@@YAPEBE00@Z@@SAPEBEPEBE0@Z ; wrapped_invoker<unsigned char const * (__cdecl*)(unsigned char const *,unsigned char const *),&_mbspbrk>::call
_o__mbspbrk_l = ?call@?$wrapped_invoker@P6APEBEPEBE0PEAU__crt_locale_pointers@@@Z$1?_mbspbrk_l@@YAPEBE001@Z@@SAPEBEPEBE0PEAU__crt_locale_pointers@@@Z ; wrapped_invoker<unsigned char const * (__cdecl*)(unsigned char const *,unsigned char const *,__crt_locale_pointers *),&_mbspbrk_l>::call
_o__mbsrchr = ?call@?$wrapped_invoker@P6APEBEPEBEI@Z$1?_mbsrchr@@YAPEBE0I@Z@@SAPEBEPEBEI@Z ; wrapped_invoker<unsigned char const * (__cdecl*)(unsigned char const *,unsigned int),&_mbsrchr>::call
_o__mbsrchr_l = ?call@?$wrapped_invoker@P6APEBEPEBEIPEAU__crt_locale_pointers@@@Z$1?_mbsrchr_l@@YAPEBE0I1@Z@@SAPEBEPEBEIPEAU__crt_locale_pointers@@@Z ; wrapped_invoker<unsigned char const * (__cdecl*)(unsigned char const *,unsigned int,__crt_locale_pointers *),&_mbsrchr_l>::call
_o__mbsrev = ?call@?$wrapped_invoker@P6APEAEPEAE@Z$1?_mbsrev@@YAPEAE0@Z@@SAPEAEPEAE@Z ; wrapped_invoker<unsigned char * (__cdecl*)(unsigned char *),&_mbsrev>::call
_o__mbsrev_l = ?call@?$wrapped_invoker@P6APEAEPEAEPEAU__crt_locale_pointers@@@Z$1?_mbsrev_l@@YAPEAE01@Z@@SAPEAEPEAEPEAU__crt_locale_pointers@@@Z ; wrapped_invoker<unsigned char * (__cdecl*)(unsigned char *,__crt_locale_pointers *),&_mbsrev_l>::call
_o__mbsset = ?call@?$wrapped_invoker@P6APEAEPEAEI@Z$1?_mbsset@@YAPEAE0I@Z@@SAPEAEPEAEI@Z ; wrapped_invoker<unsigned char * (__cdecl*)(unsigned char *,unsigned int),&_mbsset>::call
_o__mbsset_l = ?call@?$wrapped_invoker@P6APEAEPEAEIPEAU__crt_locale_pointers@@@Z$1?_mbsset_l@@YAPEAE0I1@Z@@SAPEAEPEAEIPEAU__crt_locale_pointers@@@Z ; wrapped_invoker<unsigned char * (__cdecl*)(unsigned char *,unsigned int,__crt_locale_pointers *),&_mbsset_l>::call
_o__mbsset_s = ?call@?$wrapped_invoker@P6AHPEAE_KI@Z$1?_mbsset_s@@YAH01I@Z@@SAHPEAE_KI@Z ; wrapped_invoker<int (__cdecl*)(unsigned char *,unsigned __int64,unsigned int),&_mbsset_s>::call
_o__mbsset_s_l = ?call@?$wrapped_invoker@P6AHPEAE_KIPEAU__crt_locale_pointers@@@Z$1?_mbsset_s_l@@YAH01I2@Z@@SAHPEAE_KIPEAU__crt_locale_pointers@@@Z ; wrapped_invoker<int (__cdecl*)(unsigned char *,unsigned __int64,unsigned int,__crt_locale_pointers *),&_mbsset_s_l>::call
_o__mbsspn = ?call@?$wrapped_invoker@P6A_KPEBE0@Z$1?_mbsspn@@YA_K00@Z@@SA_KPEBE0@Z ; wrapped_invoker<unsigned __int64 (__cdecl*)(unsigned char const *,unsigned char const *),&_mbsspn>::call
_o__mbsspn_l = ?call@?$wrapped_invoker@P6A_KPEBE0PEAU__crt_locale_pointers@@@Z$1?_mbsspn_l@@YA_K001@Z@@SA_KPEBE0PEAU__crt_locale_pointers@@@Z ; wrapped_invoker<unsigned __int64 (__cdecl*)(unsigned char const *,unsigned char const *,__crt_locale_pointers *),&_mbsspn_l>::call
_o__mbsspnp = ?call@?$wrapped_invoker@P6APEAEPEBE0@Z$1?_mbsspnp@@YAPEAE00@Z@@SAPEAEPEBE0@Z ; wrapped_invoker<unsigned char * (__cdecl*)(unsigned char const *,unsigned char const *),&_mbsspnp>::call
_o__mbsspnp_l = ?call@?$wrapped_invoker@P6APEAEPEBE0PEAU__crt_locale_pointers@@@Z$1?_mbsspnp_l@@YAPEAE001@Z@@SAPEAEPEBE0PEAU__crt_locale_pointers@@@Z ; wrapped_invoker<unsigned char * (__cdecl*)(unsigned char const *,unsigned char const *,__crt_locale_pointers *),&_mbsspnp_l>::call
_o__mbsstr = ?call@?$wrapped_invoker@P6APEBEPEBE0@Z$1?_mbsstr@@YAPEBE00@Z@@SAPEBEPEBE0@Z ; wrapped_invoker<unsigned char const * (__cdecl*)(unsigned char const *,unsigned char const *),&_mbsstr>::call
_o__mbsstr_l = ?call@?$wrapped_invoker@P6APEBEPEBE0PEAU__crt_locale_pointers@@@Z$1?_mbsstr_l@@YAPEBE001@Z@@SAPEBEPEBE0PEAU__crt_locale_pointers@@@Z ; wrapped_invoker<unsigned char const * (__cdecl*)(unsigned char const *,unsigned char const *,__crt_locale_pointers *),&_mbsstr_l>::call
_o__mbstok = ?call@?$wrapped_invoker@P6APEAEPEAEPEBE@Z$1?_mbstok@@YAPEAE01@Z@@SAPEAEPEAEPEBE@Z ; wrapped_invoker<unsigned char * (__cdecl*)(unsigned char *,unsigned char const *),&_mbstok>::call
_o__mbstok_l = ?call@?$wrapped_invoker@P6APEAEPEAEPEBEPEAU__crt_locale_pointers@@@Z$1?_mbstok_l@@YAPEAE012@Z@@SAPEAEPEAEPEBEPEAU__crt_locale_pointers@@@Z ; wrapped_invoker<unsigned char * (__cdecl*)(unsigned char *,unsigned char const *,__crt_locale_pointers *),&_mbstok_l>::call
_o__mbstok_s = ?call@?$wrapped_invoker@P6APEAEPEAEPEBEPEAPEAE@Z$1?_mbstok_s@@YAPEAE012@Z@@SAPEAEPEAEPEBEPEAPEAE@Z ; wrapped_invoker<unsigned char * (__cdecl*)(unsigned char *,unsigned char const *,unsigned char * *),&_mbstok_s>::call
_o__mbstok_s_l = ?call@?$wrapped_invoker@P6APEAEPEAEPEBEPEAPEAEPEAU__crt_locale_pointers@@@Z$1?_mbstok_s_l@@YAPEAE0123@Z@@SAPEAEPEAEPEBEPEAPEAEPEAU__crt_locale_pointers@@@Z ; wrapped_invoker<unsigned char * (__cdecl*)(unsigned char *,unsigned char const *,unsigned char * *,__crt_locale_pointers *),&_mbstok_s_l>::call
_o__mbstowcs_l = ?call@?$wrapped_invoker@P6A_KPEA_WPEBD_KPEAU__crt_locale_pointers@@@Z$1?_mbstowcs_l@@YA_K0123@Z@@SA_KPEA_WPEBD_KPEAU__crt_locale_pointers@@@Z ; wrapped_invoker<unsigned __int64 (__cdecl*)(wchar_t *,char const *,unsigned __int64,__crt_locale_pointers *),&_mbstowcs_l>::call
_o__mbstowcs_s_l = ?call@?$wrapped_invoker@P6AHPEA_KPEA_W_KPEBD2PEAU__crt_locale_pointers@@@Z$1?_mbstowcs_s_l@@YAH012324@Z@@SAHPEA_KPEA_W_KPEBD2PEAU__crt_locale_pointers@@@Z ; wrapped_invoker<int (__cdecl*)(unsigned __int64 *,wchar_t *,unsigned __int64,char const *,unsigned __int64,__crt_locale_pointers *),&_mbstowcs_s_l>::call
_o__mbstrlen = ?call@?$wrapped_invoker@P6A_KPEBD@Z$1?_mbstrlen@@YA_K0@Z@@SA_KPEBD@Z ; wrapped_invoker<unsigned __int64 (__cdecl*)(char const *),&_mbstrlen>::call
_o__mbstrlen_l = ?call@?$wrapped_invoker@P6A_KPEBDPEAU__crt_locale_pointers@@@Z$1?_mbstrlen_l@@YA_K01@Z@@SA_KPEBDPEAU__crt_locale_pointers@@@Z ; wrapped_invoker<unsigned __int64 (__cdecl*)(char const *,__crt_locale_pointers *),&_mbstrlen_l>::call
_o__mbstrnlen = ?call@?$wrapped_invoker@P6A_KPEBD_K@Z$1?_mbstrnlen@@YA_K01@Z@@SA_KPEBD_K@Z ; wrapped_invoker<unsigned __int64 (__cdecl*)(char const *,unsigned __int64),&_mbstrnlen>::call
_o__mbstrnlen_l = ?call@?$wrapped_invoker@P6A_KPEBD_KPEAU__crt_locale_pointers@@@Z$1?_mbstrnlen_l@@YA_K012@Z@@SA_KPEBD_KPEAU__crt_locale_pointers@@@Z ; wrapped_invoker<unsigned __int64 (__cdecl*)(char const *,unsigned __int64,__crt_locale_pointers *),&_mbstrnlen_l>::call
_o__mbsupr = ?call@?$wrapped_invoker@P6APEAEPEAE@Z$1?_mbsupr@@YAPEAE0@Z@@SAPEAEPEAE@Z ; wrapped_invoker<unsigned char * (__cdecl*)(unsigned char *),&_mbsupr>::call
_o__mbsupr_l = ?call@?$wrapped_invoker@P6APEAEPEAEPEAU__crt_locale_pointers@@@Z$1?_mbsupr_l@@YAPEAE01@Z@@SAPEAEPEAEPEAU__crt_locale_pointers@@@Z ; wrapped_invoker<unsigned char * (__cdecl*)(unsigned char *,__crt_locale_pointers *),&_mbsupr_l>::call
_o__mbsupr_s = ?call@?$wrapped_invoker@P6AHPEAE_K@Z$1?_mbsupr_s@@YAH01@Z@@SAHPEAE_K@Z ; wrapped_invoker<int (__cdecl*)(unsigned char *,unsigned __int64),&_mbsupr_s>::call
_o__mbsupr_s_l = ?call@?$wrapped_invoker@P6AHPEAE_KPEAU__crt_locale_pointers@@@Z$1?_mbsupr_s_l@@YAH012@Z@@SAHPEAE_KPEAU__crt_locale_pointers@@@Z ; wrapped_invoker<int (__cdecl*)(unsigned char *,unsigned __int64,__crt_locale_pointers *),&_mbsupr_s_l>::call
_o__mbtowc_l = ?call@?$wrapped_invoker@P6AHPEA_WPEBD_KPEAU__crt_locale_pointers@@@Z$1?_mbtowc_l@@YAH0123@Z@@SAHPEA_WPEBD_KPEAU__crt_locale_pointers@@@Z ; wrapped_invoker<int (__cdecl*)(wchar_t *,char const *,unsigned __int64,__crt_locale_pointers *),&_mbtowc_l>::call
_o__memicmp = ?call@?$wrapped_invoker@P6AHPEBX0_K@Z$1?_memicmp@@YAH001@Z@@SAHPEBX0_K@Z ; wrapped_invoker<int (__cdecl*)(void const *,void const *,unsigned __int64),&_memicmp>::call
_o__memicmp_l = ?call@?$wrapped_invoker@P6AHPEBX0_KPEAU__crt_locale_pointers@@@Z$1?_memicmp_l@@YAH0012@Z@@SAHPEBX0_KPEAU__crt_locale_pointers@@@Z ; wrapped_invoker<int (__cdecl*)(void const *,void const *,unsigned __int64,__crt_locale_pointers *),&_memicmp_l>::call
_o__mkdir = ?call@?$wrapped_invoker@P6AHPEBD@Z$1?_mkdir@@YAH0@Z@@SAHPEBD@Z ; wrapped_invoker<int (__cdecl*)(char const *),&_mkdir>::call
_o__mkgmtime32 = ?call@?$wrapped_invoker@P6AJPEAUtm@@@Z$1?_mkgmtime32@@YAJ0@Z@@SAJPEAUtm@@@Z ; wrapped_invoker<long (__cdecl*)(tm *),&_mkgmtime32>::call
_o__mkgmtime64 = ?call@?$wrapped_invoker@P6A_JPEAUtm@@@Z$1?_mkgmtime64@@YA_J0@Z@@SA_JPEAUtm@@@Z ; wrapped_invoker<__int64 (__cdecl*)(tm *),&_mkgmtime64>::call
_o__mktemp = ?call@?$wrapped_invoker@P6APEADPEAD@Z$1?_mktemp@@YAPEAD0@Z@@SAPEADPEAD@Z ; wrapped_invoker<char * (__cdecl*)(char *),&_mktemp>::call
_o__mktemp_s = ?call@?$wrapped_invoker@P6AHPEAD_K@Z$1?_mktemp_s@@YAH01@Z@@SAHPEAD_K@Z ; wrapped_invoker<int (__cdecl*)(char *,unsigned __int64),&_mktemp_s>::call
_o__mktime32 = ?call@?$wrapped_invoker@P6AJPEAUtm@@@Z$1?_mktime32@@YAJ0@Z@@SAJPEAUtm@@@Z ; wrapped_invoker<long (__cdecl*)(tm *),&_mktime32>::call
_o__mktime64 = ?call@?$wrapped_invoker@P6A_JPEAUtm@@@Z$1?_mktime64@@YA_J0@Z@@SA_JPEAUtm@@@Z ; wrapped_invoker<__int64 (__cdecl*)(tm *),&_mktime64>::call
_o__msize = ?call@?$wrapped_invoker@P6A_KPEAX@Z$1?_msize@@YA_K0@Z@@SA_KPEAX@Z ; wrapped_invoker<unsigned __int64 (__cdecl*)(void *),&_msize>::call
_o__nextafter = ?call@?$wrapped_invoker@P6ANNN@Z$1?_nextafter@@YANNN@Z@@SANNN@Z ; wrapped_invoker<double (__cdecl*)(double,double),&_nextafter>::call
_o__nextafterf = ?call@?$wrapped_invoker@P6AMMM@Z$1?_nextafterf@@YAMMM@Z@@SAMMM@Z ; wrapped_invoker<float (__cdecl*)(float,float),&_nextafterf>::call
_o__open_osfhandle = ?call@?$wrapped_invoker@P6AH_JH@Z$1?_open_osfhandle@@YAH0H@Z@@SAH_JH@Z ; wrapped_invoker<int (__cdecl*)(__int64,int),&_open_osfhandle>::call
_o__pclose = ?call@?$wrapped_invoker@P6AHPEAU_iobuf@@@Z$1?_pclose@@YAH0@Z@@SAHPEAU_iobuf@@@Z ; wrapped_invoker<int (__cdecl*)(_iobuf *),&_pclose>::call
_o__pipe = ?call@?$wrapped_invoker@P6AHPEAHIH@Z$1?_pipe@@YAH0IH@Z@@SAHPEAHIH@Z ; wrapped_invoker<int (__cdecl*)(int *,unsigned int,int),&_pipe>::call
_o__popen = ?call@?$wrapped_invoker@P6APEAU_iobuf@@PEBD0@Z$1?_popen@@YAPEAU1@00@Z@@SAPEAU_iobuf@@PEBD0@Z ; wrapped_invoker<_iobuf * (__cdecl*)(char const *,char const *),&_popen>::call
_o__purecall = ?call@?$wrapped_invoker@P6AHXZ$1?_purecall@@YAHXZ@@SAHXZ ; wrapped_invoker<int (__cdecl*)(void),&_purecall>::call
_o__putc_nolock = ?call@?$wrapped_invoker@P6AHHPEAU_iobuf@@@Z$1?_putc_nolock@@YAHH0@Z@@SAHHPEAU_iobuf@@@Z ; wrapped_invoker<int (__cdecl*)(int,_iobuf *),&_putc_nolock>::call
_o__putch = ?call@?$wrapped_invoker@P6AHH@Z$1?_putch@@YAHH@Z@@SAHH@Z ; wrapped_invoker<int (__cdecl*)(int),&_putch>::call
_o__putch_nolock = ?call@?$wrapped_invoker@P6AHH@Z$1?_putch_nolock@@YAHH@Z@@SAHH@Z ; wrapped_invoker<int (__cdecl*)(int),&_putch_nolock>::call
_o__putenv = ?call@?$wrapped_invoker@P6AHPEBD@Z$1?_putenv@@YAH0@Z@@SAHPEBD@Z ; wrapped_invoker<int (__cdecl*)(char const *),&_putenv>::call
_o__putenv_s = ?call@?$wrapped_invoker@P6AHPEBD0@Z$1?_putenv_s@@YAH00@Z@@SAHPEBD0@Z ; wrapped_invoker<int (__cdecl*)(char const *,char const *),&_putenv_s>::call
_o__putw = ?call@?$wrapped_invoker@P6AHHPEAU_iobuf@@@Z$1?_putw@@YAHH0@Z@@SAHHPEAU_iobuf@@@Z ; wrapped_invoker<int (__cdecl*)(int,_iobuf *),&_putw>::call
_o__putwc_nolock = ?call@?$wrapped_invoker@P6AG_WPEAU_iobuf@@@Z$1?_putwc_nolock@@YAG01@Z@@SAG_WPEAU_iobuf@@@Z ; wrapped_invoker<unsigned short (__cdecl*)(wchar_t,_iobuf *),&_putwc_nolock>::call
_o__putwch = ?call@?$wrapped_invoker@P6AG_W@Z$1?_putwch@@YAG0@Z@@SAG_W@Z ; wrapped_invoker<unsigned short (__cdecl*)(wchar_t),&_putwch>::call
_o__putwch_nolock = ?call@?$wrapped_invoker@P6AG_W@Z$1?_putwch_nolock@@YAG0@Z@@SAG_W@Z ; wrapped_invoker<unsigned short (__cdecl*)(wchar_t),&_putwch_nolock>::call
_o__putws = ?call@?$wrapped_invoker@P6AHPEB_W@Z$1?_putws@@YAH0@Z@@SAHPEB_W@Z ; wrapped_invoker<int (__cdecl*)(wchar_t const *),&_putws>::call
_o__read = ?call@?$wrapped_invoker@P6AHHPEAXI@Z$1?_read@@YAHH0I@Z@@SAHHPEAXI@Z ; wrapped_invoker<int (__cdecl*)(int,void *,unsigned int),&_read>::call
_o__realloc_base = ?call@?$wrapped_invoker@P6APEAXPEAX_K@Z$1?_realloc_base@@YAPEAX01@Z@@SAPEAXPEAX_K@Z ; wrapped_invoker<void * (__cdecl*)(void *,unsigned __int64),&_realloc_base>::call
_o__recalloc = ?call@?$wrapped_invoker@P6APEAXPEAX_K1@Z$1?_recalloc@@YAPEAX011@Z@@SAPEAXPEAX_K1@Z ; wrapped_invoker<void * (__cdecl*)(void *,unsigned __int64,unsigned __int64),&_recalloc>::call
_o__register_onexit_function = ?call@?$wrapped_invoker@P6AHPEAU_onexit_table_t@@P6AHXZ@Z$1?_register_onexit_function@@YAH01@Z@@SAHPEAU_onexit_table_t@@P6AHXZ@Z ; wrapped_invoker<int (__cdecl*)(_onexit_table_t *,int (__cdecl*)(void)),&_register_onexit_function>::call
_o__resetstkoflw = ?call@?$wrapped_invoker@P6AHXZ$1?_resetstkoflw@@YAHXZ@@SAHXZ ; wrapped_invoker<int (__cdecl*)(void),&_resetstkoflw>::call
_o__rmdir = ?call@?$wrapped_invoker@P6AHPEBD@Z$1?_rmdir@@YAH0@Z@@SAHPEBD@Z ; wrapped_invoker<int (__cdecl*)(char const *),&_rmdir>::call
_o__rmtmp = ?call@?$wrapped_invoker@P6AHXZ$1?_rmtmp@@YAHXZ@@SAHXZ ; wrapped_invoker<int (__cdecl*)(void),&_rmtmp>::call
_o__scalb = ?call@?$wrapped_invoker@P6ANNJ@Z$1?_scalb@@YANNJ@Z@@SANNJ@Z ; wrapped_invoker<double (__cdecl*)(double,long),&_scalb>::call
_o__scalbf = ?call@?$wrapped_invoker@P6AMMJ@Z$1?_scalbf@@YAMMJ@Z@@SAMMJ@Z ; wrapped_invoker<float (__cdecl*)(float,long),&_scalbf>::call
_o__searchenv = ?call@?$wrapped_invoker@P6AXPEBD0PEAD@Z$1?_searchenv@@YAX001@Z@@SAXPEBD0PEAD@Z ; wrapped_invoker<void (__cdecl*)(char const *,char const *,char *),&_searchenv>::call
_o__searchenv_s = ?call@?$wrapped_invoker@P6AHPEBD0PEAD_K@Z$1?_searchenv_s@@YAH0012@Z@@SAHPEBD0PEAD_K@Z ; wrapped_invoker<int (__cdecl*)(char const *,char const *,char *,unsigned __int64),&_searchenv_s>::call
_o__seh_filter_dll = ?call@?$wrapped_invoker@P6AHKPEAU_EXCEPTION_POINTERS@@@Z$1?_seh_filter_dll@@YAHK0@Z@@SAHKPEAU_EXCEPTION_POINTERS@@@Z ; wrapped_invoker<int (__cdecl*)(unsigned long,_EXCEPTION_POINTERS *),&_seh_filter_dll>::call
_o__seh_filter_exe = ?call@?$wrapped_invoker@P6AHKPEAU_EXCEPTION_POINTERS@@@Z$1?_seh_filter_exe@@YAHK0@Z@@SAHKPEAU_EXCEPTION_POINTERS@@@Z ; wrapped_invoker<int (__cdecl*)(unsigned long,_EXCEPTION_POINTERS *),&_seh_filter_exe>::call
_o__set_abort_behavior = ?call@?$wrapped_invoker@P6AIII@Z$1?_set_abort_behavior@@YAIII@Z@@SAIII@Z ; wrapped_invoker<unsigned int (__cdecl*)(unsigned int,unsigned int),&_set_abort_behavior>::call
_o__set_app_type = ?call@?$wrapped_invoker@P6AXW4_crt_app_type@@@Z$1?_set_app_type@@YAX0@Z@@SAXW4_crt_app_type@@@Z ; wrapped_invoker<void (__cdecl*)(enum _crt_app_type),&_set_app_type>::call
_o__set_doserrno = ?call@?$wrapped_invoker@P6AHK@Z$1?_set_doserrno@@YAHK@Z@@SAHK@Z ; wrapped_invoker<int (__cdecl*)(unsigned long),&_set_doserrno>::call
_o__set_errno = ?call@?$wrapped_invoker@P6AHH@Z$1?_set_errno@@YAHH@Z@@SAHH@Z ; wrapped_invoker<int (__cdecl*)(int),&_set_errno>::call
_o__set_fmode = ?call@?$wrapped_invoker@P6AHH@Z$1?_set_fmode@@YAHH@Z@@SAHH@Z ; wrapped_invoker<int (__cdecl*)(int),&_set_fmode>::call
_o__set_invalid_parameter_handler = ?call@?$wrapped_invoker@P6AP6AXPEB_W00I_K@ZP6AX000I1@Z@Z$1?_set_invalid_parameter_handler@@YAP6AX000I1@Z2@Z@@SAP6AXPEB_W00I_K@ZP6AX000I1@Z@Z ; wrapped_invoker<void (__cdecl*(__cdecl*)(void (__cdecl*)(wchar_t const *,wchar_t const *,wchar_t const *,unsigned int,unsigned __int64)))(wchar_t const *,wchar_t const *,wchar_t const *,unsigned int,unsigned __int64),&_set_invalid_parameter_handler>::call
_o__set_new_handler = ?call@?$wrapped_invoker@P6AP6AH_K@ZP6AH0@Z@Z$1?_set_new_handler@@YAP6AH0@Z1@Z@@SAP6AH_K@ZP6AH0@Z@Z ; wrapped_invoker<int (__cdecl*(__cdecl*)(int (__cdecl*)(unsigned __int64)))(unsigned __int64),&_set_new_handler>::call
_o__set_new_mode = ?call@?$wrapped_invoker@P6AHH@Z$1?_set_new_mode@@YAHH@Z@@SAHH@Z ; wrapped_invoker<int (__cdecl*)(int),&_set_new_mode>::call
_o__set_thread_local_invalid_parameter_handler = ?call@?$wrapped_invoker@P6AP6AXPEB_W00I_K@ZP6AX000I1@Z@Z$1?_set_thread_local_invalid_parameter_handler@@YAP6AX000I1@Z2@Z@@SAP6AXPEB_W00I_K@ZP6AX000I1@Z@Z ; wrapped_invoker<void (__cdecl*(__cdecl*)(void (__cdecl*)(wchar_t const *,wchar_t const *,wchar_t const *,unsigned int,unsigned __int64)))(wchar_t const *,wchar_t const *,wchar_t const *,unsigned int,unsigned __int64),&_set_thread_local_invalid_parameter_handler>::call
_o__seterrormode = ?call@?$wrapped_invoker@P6AXH@Z$1?_seterrormode@@YAXH@Z@@SAXH@Z ; wrapped_invoker<void (__cdecl*)(int),&_seterrormode>::call
_o__setmbcp = ?call@?$wrapped_invoker@P6AHH@Z$1?_setmbcp@@YAHH@Z@@SAHH@Z ; wrapped_invoker<int (__cdecl*)(int),&_setmbcp>::call
_o__setmode = ?call@?$wrapped_invoker@P6AHHH@Z$1?_setmode@@YAHHH@Z@@SAHHH@Z ; wrapped_invoker<int (__cdecl*)(int,int),&_setmode>::call
_o__setsystime = ?call@?$wrapped_invoker@P6AIPEAUtm@@I@Z$1?_setsystime@@YAI0I@Z@@SAIPEAUtm@@I@Z ; wrapped_invoker<unsigned int (__cdecl*)(tm *,unsigned int),&_setsystime>::call
_o__sleep = ?call@?$wrapped_invoker@P6AXK@Z$1?_sleep@@YAXK@Z@@SAXK@Z ; wrapped_invoker<void (__cdecl*)(unsigned long),&_sleep>::call
_o__sopen = ?call@?$wrapped_invoker@P6AHPEBDHHH@Z$1?_sopen@@YAHQEBDHHH@Z@@SAHPEBDHHH@Z ; wrapped_invoker<int (__cdecl*)(char const *,int,int,int),&_sopen>::call
_o__sopen_dispatch = ?call@?$wrapped_invoker@P6AHPEBDHHHPEAHH@Z$1?_sopen_dispatch@@YAH0HHH1H@Z@@SAHPEBDHHHPEAHH@Z ; wrapped_invoker<int (__cdecl*)(char const *,int,int,int,int *,int),&_sopen_dispatch>::call
_o__sopen_s = ?call@?$wrapped_invoker@P6AHPEAHPEBDHHH@Z$1?_sopen_s@@YAH01HHH@Z@@SAHPEAHPEBDHHH@Z ; wrapped_invoker<int (__cdecl*)(int *,char const *,int,int,int),&_sopen_s>::call
_o__spawnv = ?call@?$wrapped_invoker@P6A_JHPEBDPEBQEBD@Z$1?_spawnv@@YA_JH01@Z@@SA_JHPEBDPEBQEBD@Z ; wrapped_invoker<__int64 (__cdecl*)(int,char const *,char const * const *),&_spawnv>::call
_o__spawnve = ?call@?$wrapped_invoker@P6A_JHPEBDPEBQEBD1@Z$1?_spawnve@@YA_JH011@Z@@SA_JHPEBDPEBQEBD1@Z ; wrapped_invoker<__int64 (__cdecl*)(int,char const *,char const * const *,char const * const *),&_spawnve>::call
_o__spawnvp = ?call@?$wrapped_invoker@P6A_JHPEBDPEBQEBD@Z$1?_spawnvp@@YA_JH01@Z@@SA_JHPEBDPEBQEBD@Z ; wrapped_invoker<__int64 (__cdecl*)(int,char const *,char const * const *),&_spawnvp>::call
_o__spawnvpe = ?call@?$wrapped_invoker@P6A_JHPEBDPEBQEBD1@Z$1?_spawnvpe@@YA_JH011@Z@@SA_JHPEBDPEBQEBD1@Z ; wrapped_invoker<__int64 (__cdecl*)(int,char const *,char const * const *,char const * const *),&_spawnvpe>::call
_o__splitpath = ?call@?$wrapped_invoker@P6AXPEBDPEAD111@Z$1?_splitpath@@YAX01111@Z@@SAXPEBDPEAD111@Z ; wrapped_invoker<void (__cdecl*)(char const *,char *,char *,char *,char *),&_splitpath>::call
_o__splitpath_s = ?call@?$wrapped_invoker@P6AHPEBDPEAD_K121212@Z$1?_splitpath_s@@YAH012121212@Z@@SAHPEBDPEAD_K121212@Z ; wrapped_invoker<int (__cdecl*)(char const *,char *,unsigned __int64,char *,unsigned __int64,char *,unsigned __int64,char *,unsigned __int64),&_splitpath_s>::call
_o_1 = ?call@?$wrapped_invoker@P6AHPEBDPEAU_stat32@@@Z$1?1@YAH01@Z@@SAHPEBDPEAU_stat32@@@Z ; wrapped_invoker<int (__cdecl*)(char const *,_stat32 *),&_stat32>::call
_o_1 = ?call@?$wrapped_invoker@P6AHPEBDPEAU_stat32i64@@@Z$1?1@YAH01@Z@@SAHPEBDPEAU_stat32i64@@@Z ; wrapped_invoker<int (__cdecl*)(char const *,_stat32i64 *),&_stat32i64>::call
_o_1 = ?call@?$wrapped_invoker@P6AHPEBDPEAU_stat64@@@Z$1?1@YAH01@Z@@SAHPEBDPEAU_stat64@@@Z ; wrapped_invoker<int (__cdecl*)(char const *,_stat64 *),&_stat64>::call
_o_1 = ?call@?$wrapped_invoker@P6AHPEBDPEAU_stat64i32@@@Z$1?1@YAH01@Z@@SAHPEBDPEAU_stat64i32@@@Z ; wrapped_invoker<int (__cdecl*)(char const *,_stat64i32 *),&_stat64i32>::call
_o__strcoll_l = ?call@?$wrapped_invoker@P6AHPEBD0PEAU__crt_locale_pointers@@@Z$1?_strcoll_l@@YAH001@Z@@SAHPEBD0PEAU__crt_locale_pointers@@@Z ; wrapped_invoker<int (__cdecl*)(char const *,char const *,__crt_locale_pointers *),&_strcoll_l>::call
_o__strdate = ?call@?$wrapped_invoker@P6APEADPEAD@Z$1?_strdate@@YAPEAD0@Z@@SAPEADPEAD@Z ; wrapped_invoker<char * (__cdecl*)(char *),&_strdate>::call
_o__strdate_s = ?call@?$wrapped_invoker@P6AHPEAD_K@Z$1?_strdate_s@@YAH01@Z@@SAHPEAD_K@Z ; wrapped_invoker<int (__cdecl*)(char *,unsigned __int64),&_strdate_s>::call
_o__strdup = ?call@?$wrapped_invoker@P6APEADPEBD@Z$1?_strdup@@YAPEAD0@Z@@SAPEADPEBD@Z ; wrapped_invoker<char * (__cdecl*)(char const *),&_strdup>::call
_o__strerror = ?call@?$wrapped_invoker@P6APEADPEBD@Z$1?_strerror@@YAPEAD0@Z@@SAPEADPEBD@Z ; wrapped_invoker<char * (__cdecl*)(char const *),&_strerror>::call
_o__strerror_s = ?call@?$wrapped_invoker@P6AHPEAD_KPEBD@Z$1?_strerror_s@@YAH012@Z@@SAHPEAD_KPEBD@Z ; wrapped_invoker<int (__cdecl*)(char *,unsigned __int64,char const *),&_strerror_s>::call
_o__strftime_l = ?call@?$wrapped_invoker@P6A_KPEAD_KPEBDPEBUtm@@PEAU__crt_locale_pointers@@@Z$1?_strftime_l@@YA_K01234@Z@@SA_KPEAD_KPEBDPEBUtm@@PEAU__crt_locale_pointers@@@Z ; wrapped_invoker<unsigned __int64 (__cdecl*)(char *,unsigned __int64,char const *,tm const *,__crt_locale_pointers *),&_strftime_l>::call
_o__stricmp = ?call@?$wrapped_invoker@P6AHPEBD0@Z$1?_stricmp@@YAH00@Z@@SAHPEBD0@Z ; wrapped_invoker<int (__cdecl*)(char const *,char const *),&_stricmp>::call
_o__stricmp_l = ?call@?$wrapped_invoker@P6AHPEBD0PEAU__crt_locale_pointers@@@Z$1?_stricmp_l@@YAH001@Z@@SAHPEBD0PEAU__crt_locale_pointers@@@Z ; wrapped_invoker<int (__cdecl*)(char const *,char const *,__crt_locale_pointers *),&_stricmp_l>::call
_o__stricoll = ?call@?$wrapped_invoker@P6AHPEBD0@Z$1?_stricoll@@YAH00@Z@@SAHPEBD0@Z ; wrapped_invoker<int (__cdecl*)(char const *,char const *),&_stricoll>::call
_o__stricoll_l = ?call@?$wrapped_invoker@P6AHPEBD0PEAU__crt_locale_pointers@@@Z$1?_stricoll_l@@YAH001@Z@@SAHPEBD0PEAU__crt_locale_pointers@@@Z ; wrapped_invoker<int (__cdecl*)(char const *,char const *,__crt_locale_pointers *),&_stricoll_l>::call
_o__strlwr = ?call@?$wrapped_invoker@P6APEADPEAD@Z$1?_strlwr@@YAPEAD0@Z@@SAPEADPEAD@Z ; wrapped_invoker<char * (__cdecl*)(char *),&_strlwr>::call
_o__strlwr_l = ?call@?$wrapped_invoker@P6APEADPEADPEAU__crt_locale_pointers@@@Z$1?_strlwr_l@@YAPEAD01@Z@@SAPEADPEADPEAU__crt_locale_pointers@@@Z ; wrapped_invoker<char * (__cdecl*)(char *,__crt_locale_pointers *),&_strlwr_l>::call
_o__strlwr_s = ?call@?$wrapped_invoker@P6AHPEAD_K@Z$1?_strlwr_s@@YAH01@Z@@SAHPEAD_K@Z ; wrapped_invoker<int (__cdecl*)(char *,unsigned __int64),&_strlwr_s>::call
_o__strlwr_s_l = ?call@?$wrapped_invoker@P6AHPEAD_KPEAU__crt_locale_pointers@@@Z$1?_strlwr_s_l@@YAH012@Z@@SAHPEAD_KPEAU__crt_locale_pointers@@@Z ; wrapped_invoker<int (__cdecl*)(char *,unsigned __int64,__crt_locale_pointers *),&_strlwr_s_l>::call
_o__strncoll = ?call@?$wrapped_invoker@P6AHPEBD0_K@Z$1?_strncoll@@YAH001@Z@@SAHPEBD0_K@Z ; wrapped_invoker<int (__cdecl*)(char const *,char const *,unsigned __int64),&_strncoll>::call
_o__strncoll_l = ?call@?$wrapped_invoker@P6AHPEBD0_KPEAU__crt_locale_pointers@@@Z$1?_strncoll_l@@YAH0012@Z@@SAHPEBD0_KPEAU__crt_locale_pointers@@@Z ; wrapped_invoker<int (__cdecl*)(char const *,char const *,unsigned __int64,__crt_locale_pointers *),&_strncoll_l>::call
_o__strnicmp = ?call@?$wrapped_invoker@P6AHPEBD0_K@Z$1?_strnicmp@@YAH001@Z@@SAHPEBD0_K@Z ; wrapped_invoker<int (__cdecl*)(char const *,char const *,unsigned __int64),&_strnicmp>::call
_o__strnicmp_l = ?call@?$wrapped_invoker@P6AHPEBD0_KPEAU__crt_locale_pointers@@@Z$1?_strnicmp_l@@YAH0012@Z@@SAHPEBD0_KPEAU__crt_locale_pointers@@@Z ; wrapped_invoker<int (__cdecl*)(char const *,char const *,unsigned __int64,__crt_locale_pointers *),&_strnicmp_l>::call
_o__strnicoll = ?call@?$wrapped_invoker@P6AHPEBD0_K@Z$1?_strnicoll@@YAH001@Z@@SAHPEBD0_K@Z ; wrapped_invoker<int (__cdecl*)(char const *,char const *,unsigned __int64),&_strnicoll>::call
_o__strnicoll_l = ?call@?$wrapped_invoker@P6AHPEBD0_KPEAU__crt_locale_pointers@@@Z$1?_strnicoll_l@@YAH0012@Z@@SAHPEBD0_KPEAU__crt_locale_pointers@@@Z ; wrapped_invoker<int (__cdecl*)(char const *,char const *,unsigned __int64,__crt_locale_pointers *),&_strnicoll_l>::call
_o__strnset_s = ?call@?$wrapped_invoker@P6AHPEAD_KH1@Z$1?_strnset_s@@YAH01H1@Z@@SAHPEAD_KH1@Z ; wrapped_invoker<int (__cdecl*)(char *,unsigned __int64,int,unsigned __int64),&_strnset_s>::call
_o__strset_s = ?call@?$wrapped_invoker@P6AHPEAD_KH@Z$1?_strset_s@@YAH01H@Z@@SAHPEAD_KH@Z ; wrapped_invoker<int (__cdecl*)(char *,unsigned __int64,int),&_strset_s>::call
_o__strtime = ?call@?$wrapped_invoker@P6APEADPEAD@Z$1?_strtime@@YAPEAD0@Z@@SAPEADPEAD@Z ; wrapped_invoker<char * (__cdecl*)(char *),&_strtime>::call
_o__strtime_s = ?call@?$wrapped_invoker@P6AHPEAD_K@Z$1?_strtime_s@@YAH01@Z@@SAHPEAD_K@Z ; wrapped_invoker<int (__cdecl*)(char *,unsigned __int64),&_strtime_s>::call
_o__strtod_l = ?call@?$wrapped_invoker@P6ANPEBDPEAPEADPEAU__crt_locale_pointers@@@Z$1?_strtod_l@@YAN012@Z@@SANPEBDPEAPEADPEAU__crt_locale_pointers@@@Z ; wrapped_invoker<double (__cdecl*)(char const *,char * *,__crt_locale_pointers *),&_strtod_l>::call
_o__strtof_l = ?call@?$wrapped_invoker@P6AMPEBDPEAPEADPEAU__crt_locale_pointers@@@Z$1?_strtof_l@@YAM012@Z@@SAMPEBDPEAPEADPEAU__crt_locale_pointers@@@Z ; wrapped_invoker<float (__cdecl*)(char const *,char * *,__crt_locale_pointers *),&_strtof_l>::call
_o__strtoi64 = ?call@?$wrapped_invoker@P6A_JPEBDPEAPEADH@Z$1?_strtoi64@@YA_J01H@Z@@SA_JPEBDPEAPEADH@Z ; wrapped_invoker<__int64 (__cdecl*)(char const *,char * *,int),&_strtoi64>::call
_o__strtoi64_l = ?call@?$wrapped_invoker@P6A_JPEBDPEAPEADHPEAU__crt_locale_pointers@@@Z$1?_strtoi64_l@@YA_J01H2@Z@@SA_JPEBDPEAPEADHPEAU__crt_locale_pointers@@@Z ; wrapped_invoker<__int64 (__cdecl*)(char const *,char * *,int,__crt_locale_pointers *),&_strtoi64_l>::call
_o__strtol_l = ?call@?$wrapped_invoker@P6AJPEBDPEAPEADHPEAU__crt_locale_pointers@@@Z$1?_strtol_l@@YAJ01H2@Z@@SAJPEBDPEAPEADHPEAU__crt_locale_pointers@@@Z ; wrapped_invoker<long (__cdecl*)(char const *,char * *,int,__crt_locale_pointers *),&_strtol_l>::call
_o__strtold_l = ?call@?$wrapped_invoker@P6AOPEBDPEAPEADPEAU__crt_locale_pointers@@@Z$1?_strtold_l@@YAO012@Z@@SAOPEBDPEAPEADPEAU__crt_locale_pointers@@@Z ; wrapped_invoker<long double (__cdecl*)(char const *,char * *,__crt_locale_pointers *),&_strtold_l>::call
_o__strtoll_l = ?call@?$wrapped_invoker@P6A_JPEBDPEAPEADHPEAU__crt_locale_pointers@@@Z$1?_strtoll_l@@YA_J01H2@Z@@SA_JPEBDPEAPEADHPEAU__crt_locale_pointers@@@Z ; wrapped_invoker<__int64 (__cdecl*)(char const *,char * *,int,__crt_locale_pointers *),&_strtoll_l>::call
_o__strtoui64 = ?call@?$wrapped_invoker@P6A_KPEBDPEAPEADH@Z$1?_strtoui64@@YA_K01H@Z@@SA_KPEBDPEAPEADH@Z ; wrapped_invoker<unsigned __int64 (__cdecl*)(char const *,char * *,int),&_strtoui64>::call
_o__strtoui64_l = ?call@?$wrapped_invoker@P6A_KPEBDPEAPEADHPEAU__crt_locale_pointers@@@Z$1?_strtoui64_l@@YA_K01H2@Z@@SA_KPEBDPEAPEADHPEAU__crt_locale_pointers@@@Z ; wrapped_invoker<unsigned __int64 (__cdecl*)(char const *,char * *,int,__crt_locale_pointers *),&_strtoui64_l>::call
_o__strtoul_l = ?call@?$wrapped_invoker@P6AKPEBDPEAPEADHPEAU__crt_locale_pointers@@@Z$1?_strtoul_l@@YAK01H2@Z@@SAKPEBDPEAPEADHPEAU__crt_locale_pointers@@@Z ; wrapped_invoker<unsigned long (__cdecl*)(char const *,char * *,int,__crt_locale_pointers *),&_strtoul_l>::call
_o__strtoull_l = ?call@?$wrapped_invoker@P6A_KPEBDPEAPEADHPEAU__crt_locale_pointers@@@Z$1?_strtoull_l@@YA_K01H2@Z@@SA_KPEBDPEAPEADHPEAU__crt_locale_pointers@@@Z ; wrapped_invoker<unsigned __int64 (__cdecl*)(char const *,char * *,int,__crt_locale_pointers *),&_strtoull_l>::call
_o__strupr = ?call@?$wrapped_invoker@P6APEADPEAD@Z$1?_strupr@@YAPEAD0@Z@@SAPEADPEAD@Z ; wrapped_invoker<char * (__cdecl*)(char *),&_strupr>::call
_o__strupr_l = ?call@?$wrapped_invoker@P6APEADPEADPEAU__crt_locale_pointers@@@Z$1?_strupr_l@@YAPEAD01@Z@@SAPEADPEADPEAU__crt_locale_pointers@@@Z ; wrapped_invoker<char * (__cdecl*)(char *,__crt_locale_pointers *),&_strupr_l>::call
_o__strupr_s = ?call@?$wrapped_invoker@P6AHPEAD_K@Z$1?_strupr_s@@YAH01@Z@@SAHPEAD_K@Z ; wrapped_invoker<int (__cdecl*)(char *,unsigned __int64),&_strupr_s>::call
_o__strupr_s_l = ?call@?$wrapped_invoker@P6AHPEAD_KPEAU__crt_locale_pointers@@@Z$1?_strupr_s_l@@YAH012@Z@@SAHPEAD_KPEAU__crt_locale_pointers@@@Z ; wrapped_invoker<int (__cdecl*)(char *,unsigned __int64,__crt_locale_pointers *),&_strupr_s_l>::call
_o__strxfrm_l = ?call@?$wrapped_invoker@P6A_KPEADPEBD_KPEAU__crt_locale_pointers@@@Z$1?_strxfrm_l@@YA_K0123@Z@@SA_KPEADPEBD_KPEAU__crt_locale_pointers@@@Z ; wrapped_invoker<unsigned __int64 (__cdecl*)(char *,char const *,unsigned __int64,__crt_locale_pointers *),&_strxfrm_l>::call
_o__swab = ?call@?$wrapped_invoker@P6AXPEAD0H@Z$1?_swab@@YAX00H@Z@@SAXPEAD0H@Z ; wrapped_invoker<void (__cdecl*)(char *,char *,int),&_swab>::call
_o__tell = ?call@?$wrapped_invoker@P6AJH@Z$1?_tell@@YAJH@Z@@SAJH@Z ; wrapped_invoker<long (__cdecl*)(int),&_tell>::call
_o__telli64 = ?call@?$wrapped_invoker@P6A_JH@Z$1?_telli64@@YA_JH@Z@@SA_JH@Z ; wrapped_invoker<__int64 (__cdecl*)(int),&_telli64>::call
_o__timespec32_get = ?call@?$wrapped_invoker@P6AHPEAU_timespec32@@H@Z$1?_timespec32_get@@YAH0H@Z@@SAHPEAU_timespec32@@H@Z ; wrapped_invoker<int (__cdecl*)(_timespec32 *,int),&_timespec32_get>::call
_o__timespec64_get = ?call@?$wrapped_invoker@P6AHPEAU_timespec64@@H@Z$1?_timespec64_get@@YAH0H@Z@@SAHPEAU_timespec64@@H@Z ; wrapped_invoker<int (__cdecl*)(_timespec64 *,int),&_timespec64_get>::call
_o__tolower = ?call@?$wrapped_invoker@P6AHH@Z$1?_tolower@@YAHH@Z@@SAHH@Z ; wrapped_invoker<int (__cdecl*)(int),&_tolower>::call
_o__tolower_l = ?call@?$wrapped_invoker@P6AHHPEAU__crt_locale_pointers@@@Z$1?_tolower_l@@YAHH0@Z@@SAHHPEAU__crt_locale_pointers@@@Z ; wrapped_invoker<int (__cdecl*)(int,__crt_locale_pointers *),&_tolower_l>::call
_o__toupper = ?call@?$wrapped_invoker@P6AHH@Z$1?_toupper@@YAHH@Z@@SAHH@Z ; wrapped_invoker<int (__cdecl*)(int),&_toupper>::call
_o__toupper_l = ?call@?$wrapped_invoker@P6AHHPEAU__crt_locale_pointers@@@Z$1?_toupper_l@@YAHH0@Z@@SAHHPEAU__crt_locale_pointers@@@Z ; wrapped_invoker<int (__cdecl*)(int,__crt_locale_pointers *),&_toupper_l>::call
_o__towlower_l = ?call@?$wrapped_invoker@P6AGGPEAU__crt_locale_pointers@@@Z$1?_towlower_l@@YAGG0@Z@@SAGGPEAU__crt_locale_pointers@@@Z ; wrapped_invoker<unsigned short (__cdecl*)(unsigned short,__crt_locale_pointers *),&_towlower_l>::call
_o__towupper_l = ?call@?$wrapped_invoker@P6AGGPEAU__crt_locale_pointers@@@Z$1?_towupper_l@@YAGG0@Z@@SAGGPEAU__crt_locale_pointers@@@Z ; wrapped_invoker<unsigned short (__cdecl*)(unsigned short,__crt_locale_pointers *),&_towupper_l>::call
_o__tzset = ?call@?$wrapped_invoker@P6AXXZ$1?_tzset@@YAXXZ@@SAXXZ ; wrapped_invoker<void (__cdecl*)(void),&_tzset>::call
_o__ui64toa = ?call@?$wrapped_invoker@P6APEAD_KPEADH@Z$1?_ui64toa@@YAPEAD01H@Z@@SAPEAD_KPEADH@Z ; wrapped_invoker<char * (__cdecl*)(unsigned __int64,char *,int),&_ui64toa>::call
_o__ui64toa_s = ?call@?$wrapped_invoker@P6AH_KPEAD0H@Z$1?_ui64toa_s@@YAH010H@Z@@SAH_KPEAD0H@Z ; wrapped_invoker<int (__cdecl*)(unsigned __int64,char *,unsigned __int64,int),&_ui64toa_s>::call
_o__ui64tow = ?call@?$wrapped_invoker@P6APEA_W_KPEA_WH@Z$1?_ui64tow@@YAPEA_W01H@Z@@SAPEA_W_KPEA_WH@Z ; wrapped_invoker<wchar_t * (__cdecl*)(unsigned __int64,wchar_t *,int),&_ui64tow>::call
_o__ui64tow_s = ?call@?$wrapped_invoker@P6AH_KPEA_W0H@Z$1?_ui64tow_s@@YAH010H@Z@@SAH_KPEA_W0H@Z ; wrapped_invoker<int (__cdecl*)(unsigned __int64,wchar_t *,unsigned __int64,int),&_ui64tow_s>::call
_o__ultoa = ?call@?$wrapped_invoker@P6APEADKPEADH@Z$1?_ultoa@@YAPEADK0H@Z@@SAPEADKPEADH@Z ; wrapped_invoker<char * (__cdecl*)(unsigned long,char *,int),&_ultoa>::call
_o__ultoa_s = ?call@?$wrapped_invoker@P6AHKPEAD_KH@Z$1?_ultoa_s@@YAHK01H@Z@@SAHKPEAD_KH@Z ; wrapped_invoker<int (__cdecl*)(unsigned long,char *,unsigned __int64,int),&_ultoa_s>::call
_o__ultow = ?call@?$wrapped_invoker@P6APEA_WKPEA_WH@Z$1?_ultow@@YAPEA_WK0H@Z@@SAPEA_WKPEA_WH@Z ; wrapped_invoker<wchar_t * (__cdecl*)(unsigned long,wchar_t *,int),&_ultow>::call
_o__ultow_s = ?call@?$wrapped_invoker@P6AHKPEA_W_KH@Z$1?_ultow_s@@YAHK01H@Z@@SAHKPEA_W_KH@Z ; wrapped_invoker<int (__cdecl*)(unsigned long,wchar_t *,unsigned __int64,int),&_ultow_s>::call
_o__umask = ?call@?$wrapped_invoker@P6AHH@Z$1?_umask@@YAHH@Z@@SAHH@Z ; wrapped_invoker<int (__cdecl*)(int),&_umask>::call
_o__umask_s = ?call@?$wrapped_invoker@P6AHHPEAH@Z$1?_umask_s@@YAHH0@Z@@SAHHPEAH@Z ; wrapped_invoker<int (__cdecl*)(int,int *),&_umask_s>::call
_o__ungetc_nolock = ?call@?$wrapped_invoker@P6AHHPEAU_iobuf@@@Z$1?_ungetc_nolock@@YAHH0@Z@@SAHHPEAU_iobuf@@@Z ; wrapped_invoker<int (__cdecl*)(int,_iobuf *),&_ungetc_nolock>::call
_o__ungetch = ?call@?$wrapped_invoker@P6AHH@Z$1?_ungetch@@YAHH@Z@@SAHH@Z ; wrapped_invoker<int (__cdecl*)(int),&_ungetch>::call
_o__ungetch_nolock = ?call@?$wrapped_invoker@P6AHH@Z$1?_ungetch_nolock@@YAHH@Z@@SAHH@Z ; wrapped_invoker<int (__cdecl*)(int),&_ungetch_nolock>::call
_o__ungetwc_nolock = ?call@?$wrapped_invoker@P6AGGPEAU_iobuf@@@Z$1?_ungetwc_nolock@@YAGG0@Z@@SAGGPEAU_iobuf@@@Z ; wrapped_invoker<unsigned short (__cdecl*)(unsigned short,_iobuf *),&_ungetwc_nolock>::call
_o__ungetwch = ?call@?$wrapped_invoker@P6AGG@Z$1?_ungetwch@@YAGG@Z@@SAGG@Z ; wrapped_invoker<unsigned short (__cdecl*)(unsigned short),&_ungetwch>::call
_o__ungetwch_nolock = ?call@?$wrapped_invoker@P6AGG@Z$1?_ungetwch_nolock@@YAGG@Z@@SAGG@Z ; wrapped_invoker<unsigned short (__cdecl*)(unsigned short),&_ungetwch_nolock>::call
_o__unlink = ?call@?$wrapped_invoker@P6AHPEBD@Z$1?_unlink@@YAH0@Z@@SAHPEBD@Z ; wrapped_invoker<int (__cdecl*)(char const *),&_unlink>::call
_o__unloaddll = ?call@?$wrapped_invoker@P6AH_J@Z$1?_unloaddll@@YAH0@Z@@SAH_J@Z ; wrapped_invoker<int (__cdecl*)(__int64),&_unloaddll>::call
_o__unlock_file = ?call@?$wrapped_invoker@P6AXPEAU_iobuf@@@Z$1?_unlock_file@@YAX0@Z@@SAXPEAU_iobuf@@@Z ; wrapped_invoker<void (__cdecl*)(_iobuf *),&_unlock_file>::call
_o__utime32 = ?call@?$wrapped_invoker@P6AHPEBDPEAU__utimbuf32@@@Z$1?_utime32@@YAH01@Z@@SAHPEBDPEAU__utimbuf32@@@Z ; wrapped_invoker<int (__cdecl*)(char const *,__utimbuf32 *),&_utime32>::call
_o__utime64 = ?call@?$wrapped_invoker@P6AHPEBDPEAU__utimbuf64@@@Z$1?_utime64@@YAH01@Z@@SAHPEBDPEAU__utimbuf64@@@Z ; wrapped_invoker<int (__cdecl*)(char const *,__utimbuf64 *),&_utime64>::call
_o__waccess = ?call@?$wrapped_invoker@P6AHPEB_WH@Z$1?_waccess@@YAH0H@Z@@SAHPEB_WH@Z ; wrapped_invoker<int (__cdecl*)(wchar_t const *,int),&_waccess>::call
_o__waccess_s = ?call@?$wrapped_invoker@P6AHPEB_WH@Z$1?_waccess_s@@YAH0H@Z@@SAHPEB_WH@Z ; wrapped_invoker<int (__cdecl*)(wchar_t const *,int),&_waccess_s>::call
_o__wasctime = ?call@?$wrapped_invoker@P6APEA_WPEBUtm@@@Z$1?_wasctime@@YAPEA_W0@Z@@SAPEA_WPEBUtm@@@Z ; wrapped_invoker<wchar_t * (__cdecl*)(tm const *),&_wasctime>::call
_o__wasctime_s = ?call@?$wrapped_invoker@P6AHPEA_W_KPEBUtm@@@Z$1?_wasctime_s@@YAH012@Z@@SAHPEA_W_KPEBUtm@@@Z ; wrapped_invoker<int (__cdecl*)(wchar_t *,unsigned __int64,tm const *),&_wasctime_s>::call
_o__wchdir = ?call@?$wrapped_invoker@P6AHPEB_W@Z$1?_wchdir@@YAH0@Z@@SAHPEB_W@Z ; wrapped_invoker<int (__cdecl*)(wchar_t const *),&_wchdir>::call
_o__wchmod = ?call@?$wrapped_invoker@P6AHPEB_WH@Z$1?_wchmod@@YAH0H@Z@@SAHPEB_WH@Z ; wrapped_invoker<int (__cdecl*)(wchar_t const *,int),&_wchmod>::call
_o__wcreat = ?call@?$wrapped_invoker@P6AHPEB_WH@Z$1?_wcreat@@YAH0H@Z@@SAHPEB_WH@Z ; wrapped_invoker<int (__cdecl*)(wchar_t const *,int),&_wcreat>::call
_o__wcreate_locale = ?call@?$wrapped_invoker@P6APEAU__crt_locale_pointers@@HPEB_W@Z$1?_wcreate_locale@@YAPEAU1@H0@Z@@SAPEAU__crt_locale_pointers@@HPEB_W@Z ; wrapped_invoker<__crt_locale_pointers * (__cdecl*)(int,wchar_t const *),&_wcreate_locale>::call
_o__wcscoll_l = ?call@?$wrapped_invoker@P6AHPEB_W0PEAU__crt_locale_pointers@@@Z$1?_wcscoll_l@@YAH001@Z@@SAHPEB_W0PEAU__crt_locale_pointers@@@Z ; wrapped_invoker<int (__cdecl*)(wchar_t const *,wchar_t const *,__crt_locale_pointers *),&_wcscoll_l>::call
_o__wcsdup = ?call@?$wrapped_invoker@P6APEA_WPEB_W@Z$1?_wcsdup@@YAPEA_W0@Z@@SAPEA_WPEB_W@Z ; wrapped_invoker<wchar_t * (__cdecl*)(wchar_t const *),&_wcsdup>::call
_o__wcserror = ?call@?$wrapped_invoker@P6APEA_WH@Z$1?_wcserror@@YAPEA_WH@Z@@SAPEA_WH@Z ; wrapped_invoker<wchar_t * (__cdecl*)(int),&_wcserror>::call
_o__wcserror_s = ?call@?$wrapped_invoker@P6AHPEA_W_KH@Z$1?_wcserror_s@@YAH01H@Z@@SAHPEA_W_KH@Z ; wrapped_invoker<int (__cdecl*)(wchar_t *,unsigned __int64,int),&_wcserror_s>::call
_o__wcsftime_l = ?call@?$wrapped_invoker@P6A_KPEA_W_KPEB_WPEBUtm@@PEAU__crt_locale_pointers@@@Z$1?_wcsftime_l@@YA_K01234@Z@@SA_KPEA_W_KPEB_WPEBUtm@@PEAU__crt_locale_pointers@@@Z ; wrapped_invoker<unsigned __int64 (__cdecl*)(wchar_t *,unsigned __int64,wchar_t const *,tm const *,__crt_locale_pointers *),&_wcsftime_l>::call
_o__wcsicmp = ?call@?$wrapped_invoker@P6AHPEB_W0@Z$1?_wcsicmp@@YAH00@Z@@SAHPEB_W0@Z ; wrapped_invoker<int (__cdecl*)(wchar_t const *,wchar_t const *),&_wcsicmp>::call
_o__wcsicmp_l = ?call@?$wrapped_invoker@P6AHPEB_W0PEAU__crt_locale_pointers@@@Z$1?_wcsicmp_l@@YAH001@Z@@SAHPEB_W0PEAU__crt_locale_pointers@@@Z ; wrapped_invoker<int (__cdecl*)(wchar_t const *,wchar_t const *,__crt_locale_pointers *),&_wcsicmp_l>::call
_o__wcsicoll = ?call@?$wrapped_invoker@P6AHPEB_W0@Z$1?_wcsicoll@@YAH00@Z@@SAHPEB_W0@Z ; wrapped_invoker<int (__cdecl*)(wchar_t const *,wchar_t const *),&_wcsicoll>::call
_o__wcsicoll_l = ?call@?$wrapped_invoker@P6AHPEB_W0PEAU__crt_locale_pointers@@@Z$1?_wcsicoll_l@@YAH001@Z@@SAHPEB_W0PEAU__crt_locale_pointers@@@Z ; wrapped_invoker<int (__cdecl*)(wchar_t const *,wchar_t const *,__crt_locale_pointers *),&_wcsicoll_l>::call
_o__wcslwr = ?call@?$wrapped_invoker@P6APEA_WPEA_W@Z$1?_wcslwr@@YAPEA_W0@Z@@SAPEA_WPEA_W@Z ; wrapped_invoker<wchar_t * (__cdecl*)(wchar_t *),&_wcslwr>::call
_o__wcslwr_l = ?call@?$wrapped_invoker@P6APEA_WPEA_WPEAU__crt_locale_pointers@@@Z$1?_wcslwr_l@@YAPEA_W01@Z@@SAPEA_WPEA_WPEAU__crt_locale_pointers@@@Z ; wrapped_invoker<wchar_t * (__cdecl*)(wchar_t *,__crt_locale_pointers *),&_wcslwr_l>::call
_o__wcslwr_s = ?call@?$wrapped_invoker@P6AHPEA_W_K@Z$1?_wcslwr_s@@YAH01@Z@@SAHPEA_W_K@Z ; wrapped_invoker<int (__cdecl*)(wchar_t *,unsigned __int64),&_wcslwr_s>::call
_o__wcslwr_s_l = ?call@?$wrapped_invoker@P6AHPEA_W_KPEAU__crt_locale_pointers@@@Z$1?_wcslwr_s_l@@YAH012@Z@@SAHPEA_W_KPEAU__crt_locale_pointers@@@Z ; wrapped_invoker<int (__cdecl*)(wchar_t *,unsigned __int64,__crt_locale_pointers *),&_wcslwr_s_l>::call
_o__wcsncoll = ?call@?$wrapped_invoker@P6AHPEB_W0_K@Z$1?_wcsncoll@@YAH001@Z@@SAHPEB_W0_K@Z ; wrapped_invoker<int (__cdecl*)(wchar_t const *,wchar_t const *,unsigned __int64),&_wcsncoll>::call
_o__wcsncoll_l = ?call@?$wrapped_invoker@P6AHPEB_W0_KPEAU__crt_locale_pointers@@@Z$1?_wcsncoll_l@@YAH0012@Z@@SAHPEB_W0_KPEAU__crt_locale_pointers@@@Z ; wrapped_invoker<int (__cdecl*)(wchar_t const *,wchar_t const *,unsigned __int64,__crt_locale_pointers *),&_wcsncoll_l>::call
_o__wcsnicmp = ?call@?$wrapped_invoker@P6AHPEB_W0_K@Z$1?_wcsnicmp@@YAH001@Z@@SAHPEB_W0_K@Z ; wrapped_invoker<int (__cdecl*)(wchar_t const *,wchar_t const *,unsigned __int64),&_wcsnicmp>::call
_o__wcsnicmp_l = ?call@?$wrapped_invoker@P6AHPEB_W0_KPEAU__crt_locale_pointers@@@Z$1?_wcsnicmp_l@@YAH0012@Z@@SAHPEB_W0_KPEAU__crt_locale_pointers@@@Z ; wrapped_invoker<int (__cdecl*)(wchar_t const *,wchar_t const *,unsigned __int64,__crt_locale_pointers *),&_wcsnicmp_l>::call
_o__wcsnicoll = ?call@?$wrapped_invoker@P6AHPEB_W0_K@Z$1?_wcsnicoll@@YAH001@Z@@SAHPEB_W0_K@Z ; wrapped_invoker<int (__cdecl*)(wchar_t const *,wchar_t const *,unsigned __int64),&_wcsnicoll>::call
_o__wcsnicoll_l = ?call@?$wrapped_invoker@P6AHPEB_W0_KPEAU__crt_locale_pointers@@@Z$1?_wcsnicoll_l@@YAH0012@Z@@SAHPEB_W0_KPEAU__crt_locale_pointers@@@Z ; wrapped_invoker<int (__cdecl*)(wchar_t const *,wchar_t const *,unsigned __int64,__crt_locale_pointers *),&_wcsnicoll_l>::call
_o__wcsnset = ?call@?$wrapped_invoker@P6APEA_WPEA_W_W_K@Z$1?_wcsnset@@YAPEA_W012@Z@@SAPEA_WPEA_W_W_K@Z ; wrapped_invoker<wchar_t * (__cdecl*)(wchar_t *,wchar_t,unsigned __int64),&_wcsnset>::call
_o__wcsnset_s = ?call@?$wrapped_invoker@P6AHPEA_W_K_W1@Z$1?_wcsnset_s@@YAH0121@Z@@SAHPEA_W_K_W1@Z ; wrapped_invoker<int (__cdecl*)(wchar_t *,unsigned __int64,wchar_t,unsigned __int64),&_wcsnset_s>::call
_o__wcsset = ?call@?$wrapped_invoker@P6APEA_WPEA_W_W@Z$1?_wcsset@@YAPEA_W01@Z@@SAPEA_WPEA_W_W@Z ; wrapped_invoker<wchar_t * (__cdecl*)(wchar_t *,wchar_t),&_wcsset>::call
_o__wcsset_s = ?call@?$wrapped_invoker@P6AHPEA_W_K_W@Z$1?_wcsset_s@@YAH012@Z@@SAHPEA_W_K_W@Z ; wrapped_invoker<int (__cdecl*)(wchar_t *,unsigned __int64,wchar_t),&_wcsset_s>::call
_o__wcstod_l = ?call@?$wrapped_invoker@P6ANPEB_WPEAPEA_WPEAU__crt_locale_pointers@@@Z$1?_wcstod_l@@YAN012@Z@@SANPEB_WPEAPEA_WPEAU__crt_locale_pointers@@@Z ; wrapped_invoker<double (__cdecl*)(wchar_t const *,wchar_t * *,__crt_locale_pointers *),&_wcstod_l>::call
_o__wcstof_l = ?call@?$wrapped_invoker@P6AMPEB_WPEAPEA_WPEAU__crt_locale_pointers@@@Z$1?_wcstof_l@@YAM012@Z@@SAMPEB_WPEAPEA_WPEAU__crt_locale_pointers@@@Z ; wrapped_invoker<float (__cdecl*)(wchar_t const *,wchar_t * *,__crt_locale_pointers *),&_wcstof_l>::call
_o__wcstoi64 = ?call@?$wrapped_invoker@P6A_JPEB_WPEAPEA_WH@Z$1?_wcstoi64@@YA_J01H@Z@@SA_JPEB_WPEAPEA_WH@Z ; wrapped_invoker<__int64 (__cdecl*)(wchar_t const *,wchar_t * *,int),&_wcstoi64>::call
_o__wcstoi64_l = ?call@?$wrapped_invoker@P6A_JPEB_WPEAPEA_WHPEAU__crt_locale_pointers@@@Z$1?_wcstoi64_l@@YA_J01H2@Z@@SA_JPEB_WPEAPEA_WHPEAU__crt_locale_pointers@@@Z ; wrapped_invoker<__int64 (__cdecl*)(wchar_t const *,wchar_t * *,int,__crt_locale_pointers *),&_wcstoi64_l>::call
_o__wcstol_l = ?call@?$wrapped_invoker@P6AJPEB_WPEAPEA_WHPEAU__crt_locale_pointers@@@Z$1?_wcstol_l@@YAJ01H2@Z@@SAJPEB_WPEAPEA_WHPEAU__crt_locale_pointers@@@Z ; wrapped_invoker<long (__cdecl*)(wchar_t const *,wchar_t * *,int,__crt_locale_pointers *),&_wcstol_l>::call
_o__wcstold_l = ?call@?$wrapped_invoker@P6AOPEB_WPEAPEA_WPEAU__crt_locale_pointers@@@Z$1?_wcstold_l@@YAO012@Z@@SAOPEB_WPEAPEA_WPEAU__crt_locale_pointers@@@Z ; wrapped_invoker<long double (__cdecl*)(wchar_t const *,wchar_t * *,__crt_locale_pointers *),&_wcstold_l>::call
_o__wcstoll_l = ?call@?$wrapped_invoker@P6A_JPEB_WPEAPEA_WHPEAU__crt_locale_pointers@@@Z$1?_wcstoll_l@@YA_J01H2@Z@@SA_JPEB_WPEAPEA_WHPEAU__crt_locale_pointers@@@Z ; wrapped_invoker<__int64 (__cdecl*)(wchar_t const *,wchar_t * *,int,__crt_locale_pointers *),&_wcstoll_l>::call
_o__wcstombs_l = ?call@?$wrapped_invoker@P6A_KPEADPEB_W_KPEAU__crt_locale_pointers@@@Z$1?_wcstombs_l@@YA_K0123@Z@@SA_KPEADPEB_W_KPEAU__crt_locale_pointers@@@Z ; wrapped_invoker<unsigned __int64 (__cdecl*)(char *,wchar_t const *,unsigned __int64,__crt_locale_pointers *),&_wcstombs_l>::call
_o__wcstombs_s_l = ?call@?$wrapped_invoker@P6AHPEA_KPEAD_KPEB_W2PEAU__crt_locale_pointers@@@Z$1?_wcstombs_s_l@@YAH012324@Z@@SAHPEA_KPEAD_KPEB_W2PEAU__crt_locale_pointers@@@Z ; wrapped_invoker<int (__cdecl*)(unsigned __int64 *,char *,unsigned __int64,wchar_t const *,unsigned __int64,__crt_locale_pointers *),&_wcstombs_s_l>::call
_o__wcstoui64 = ?call@?$wrapped_invoker@P6A_KPEB_WPEAPEA_WH@Z$1?_wcstoui64@@YA_K01H@Z@@SA_KPEB_WPEAPEA_WH@Z ; wrapped_invoker<unsigned __int64 (__cdecl*)(wchar_t const *,wchar_t * *,int),&_wcstoui64>::call
_o__wcstoui64_l = ?call@?$wrapped_invoker@P6A_KPEB_WPEAPEA_WHPEAU__crt_locale_pointers@@@Z$1?_wcstoui64_l@@YA_K01H2@Z@@SA_KPEB_WPEAPEA_WHPEAU__crt_locale_pointers@@@Z ; wrapped_invoker<unsigned __int64 (__cdecl*)(wchar_t const *,wchar_t * *,int,__crt_locale_pointers *),&_wcstoui64_l>::call
_o__wcstoul_l = ?call@?$wrapped_invoker@P6AKPEB_WPEAPEA_WHPEAU__crt_locale_pointers@@@Z$1?_wcstoul_l@@YAK01H2@Z@@SAKPEB_WPEAPEA_WHPEAU__crt_locale_pointers@@@Z ; wrapped_invoker<unsigned long (__cdecl*)(wchar_t const *,wchar_t * *,int,__crt_locale_pointers *),&_wcstoul_l>::call
_o__wcstoull_l = ?call@?$wrapped_invoker@P6A_KPEB_WPEAPEA_WHPEAU__crt_locale_pointers@@@Z$1?_wcstoull_l@@YA_K01H2@Z@@SA_KPEB_WPEAPEA_WHPEAU__crt_locale_pointers@@@Z ; wrapped_invoker<unsigned __int64 (__cdecl*)(wchar_t const *,wchar_t * *,int,__crt_locale_pointers *),&_wcstoull_l>::call
_o__wcsupr = ?call@?$wrapped_invoker@P6APEA_WPEA_W@Z$1?_wcsupr@@YAPEA_W0@Z@@SAPEA_WPEA_W@Z ; wrapped_invoker<wchar_t * (__cdecl*)(wchar_t *),&_wcsupr>::call
_o__wcsupr_l = ?call@?$wrapped_invoker@P6APEA_WPEA_WPEAU__crt_locale_pointers@@@Z$1?_wcsupr_l@@YAPEA_W01@Z@@SAPEA_WPEA_WPEAU__crt_locale_pointers@@@Z ; wrapped_invoker<wchar_t * (__cdecl*)(wchar_t *,__crt_locale_pointers *),&_wcsupr_l>::call
_o__wcsupr_s = ?call@?$wrapped_invoker@P6AHPEA_W_K@Z$1?_wcsupr_s@@YAH01@Z@@SAHPEA_W_K@Z ; wrapped_invoker<int (__cdecl*)(wchar_t *,unsigned __int64),&_wcsupr_s>::call
_o__wcsupr_s_l = ?call@?$wrapped_invoker@P6AHPEA_W_KPEAU__crt_locale_pointers@@@Z$1?_wcsupr_s_l@@YAH012@Z@@SAHPEA_W_KPEAU__crt_locale_pointers@@@Z ; wrapped_invoker<int (__cdecl*)(wchar_t *,unsigned __int64,__crt_locale_pointers *),&_wcsupr_s_l>::call
_o__wcsxfrm_l = ?call@?$wrapped_invoker@P6A_KPEA_WPEB_W_KPEAU__crt_locale_pointers@@@Z$1?_wcsxfrm_l@@YA_K0123@Z@@SA_KPEA_WPEB_W_KPEAU__crt_locale_pointers@@@Z ; wrapped_invoker<unsigned __int64 (__cdecl*)(wchar_t *,wchar_t const *,unsigned __int64,__crt_locale_pointers *),&_wcsxfrm_l>::call
_o__wctime32 = ?call@?$wrapped_invoker@P6APEA_WPEBJ@Z$1?_wctime32@@YAPEA_W0@Z@@SAPEA_WPEBJ@Z ; wrapped_invoker<wchar_t * (__cdecl*)(long const *),&_wctime32>::call
_o__wctime32_s = ?call@?$wrapped_invoker@P6AHPEA_W_KPEBJ@Z$1?_wctime32_s@@YAH012@Z@@SAHPEA_W_KPEBJ@Z ; wrapped_invoker<int (__cdecl*)(wchar_t *,unsigned __int64,long const *),&_wctime32_s>::call
_o__wctime64 = ?call@?$wrapped_invoker@P6APEA_WPEB_J@Z$1?_wctime64@@YAPEA_W0@Z@@SAPEA_WPEB_J@Z ; wrapped_invoker<wchar_t * (__cdecl*)(__int64 const *),&_wctime64>::call
_o__wctime64_s = ?call@?$wrapped_invoker@P6AHPEA_W_KPEB_J@Z$1?_wctime64_s@@YAH012@Z@@SAHPEA_W_KPEB_J@Z ; wrapped_invoker<int (__cdecl*)(wchar_t *,unsigned __int64,__int64 const *),&_wctime64_s>::call
_o__wctomb_l = ?call@?$wrapped_invoker@P6AHPEAD_WPEAU__crt_locale_pointers@@@Z$1?_wctomb_l@@YAH012@Z@@SAHPEAD_WPEAU__crt_locale_pointers@@@Z ; wrapped_invoker<int (__cdecl*)(char *,wchar_t,__crt_locale_pointers *),&_wctomb_l>::call
_o__wctomb_s_l = ?call@?$wrapped_invoker@P6AHPEAHPEAD_K_WPEAU__crt_locale_pointers@@@Z$1?_wctomb_s_l@@YAH01234@Z@@SAHPEAHPEAD_K_WPEAU__crt_locale_pointers@@@Z ; wrapped_invoker<int (__cdecl*)(int *,char *,unsigned __int64,wchar_t,__crt_locale_pointers *),&_wctomb_s_l>::call
_o__wdupenv_s = ?call@?$wrapped_invoker@P6AHPEAPEA_WPEA_KPEB_W@Z$1?_wdupenv_s@@YAH012@Z@@SAHPEAPEA_WPEA_KPEB_W@Z ; wrapped_invoker<int (__cdecl*)(wchar_t * *,unsigned __int64 *,wchar_t const *),&_wdupenv_s>::call
_o__wexecv = ?call@?$wrapped_invoker@P6A_JPEB_WPEBQEB_W@Z$1?_wexecv@@YA_J01@Z@@SA_JPEB_WPEBQEB_W@Z ; wrapped_invoker<__int64 (__cdecl*)(wchar_t const *,wchar_t const * const *),&_wexecv>::call
_o__wexecve = ?call@?$wrapped_invoker@P6A_JPEB_WPEBQEB_W1@Z$1?_wexecve@@YA_J011@Z@@SA_JPEB_WPEBQEB_W1@Z ; wrapped_invoker<__int64 (__cdecl*)(wchar_t const *,wchar_t const * const *,wchar_t const * const *),&_wexecve>::call
_o__wexecvp = ?call@?$wrapped_invoker@P6A_JPEB_WPEBQEB_W@Z$1?_wexecvp@@YA_J01@Z@@SA_JPEB_WPEBQEB_W@Z ; wrapped_invoker<__int64 (__cdecl*)(wchar_t const *,wchar_t const * const *),&_wexecvp>::call
_o__wexecvpe = ?call@?$wrapped_invoker@P6A_JPEB_WPEBQEB_W1@Z$1?_wexecvpe@@YA_J011@Z@@SA_JPEB_WPEBQEB_W1@Z ; wrapped_invoker<__int64 (__cdecl*)(wchar_t const *,wchar_t const * const *,wchar_t const * const *),&_wexecvpe>::call
_o__wfdopen = ?call@?$wrapped_invoker@P6APEAU_iobuf@@HPEB_W@Z$1?_wfdopen@@YAPEAU1@H0@Z@@SAPEAU_iobuf@@HPEB_W@Z ; wrapped_invoker<_iobuf * (__cdecl*)(int,wchar_t const *),&_wfdopen>::call
_o__wfindfirst32 = ?call@?$wrapped_invoker@P6A_JPEB_WPEAU_wfinddata32_t@@@Z$1?_wfindfirst32@@YA_J01@Z@@SA_JPEB_WPEAU_wfinddata32_t@@@Z ; wrapped_invoker<__int64 (__cdecl*)(wchar_t const *,_wfinddata32_t *),&_wfindfirst32>::call
_o__wfindfirst32i64 = ?call@?$wrapped_invoker@P6A_JPEB_WPEAU_wfinddata32i64_t@@@Z$1?_wfindfirst32i64@@YA_J01@Z@@SA_JPEB_WPEAU_wfinddata32i64_t@@@Z ; wrapped_invoker<__int64 (__cdecl*)(wchar_t const *,_wfinddata32i64_t *),&_wfindfirst32i64>::call
_o__wfindfirst64 = ?call@?$wrapped_invoker@P6A_JPEB_WPEAU_wfinddata64_t@@@Z$1?_wfindfirst64@@YA_J01@Z@@SA_JPEB_WPEAU_wfinddata64_t@@@Z ; wrapped_invoker<__int64 (__cdecl*)(wchar_t const *,_wfinddata64_t *),&_wfindfirst64>::call
_o__wfindfirst64i32 = ?call@?$wrapped_invoker@P6A_JPEB_WPEAU_wfinddata64i32_t@@@Z$1?_wfindfirst64i32@@YA_J01@Z@@SA_JPEB_WPEAU_wfinddata64i32_t@@@Z ; wrapped_invoker<__int64 (__cdecl*)(wchar_t const *,_wfinddata64i32_t *),&_wfindfirst64i32>::call
_o__wfindnext32 = ?call@?$wrapped_invoker@P6AH_JPEAU_wfinddata32_t@@@Z$1?_wfindnext32@@YAH01@Z@@SAH_JPEAU_wfinddata32_t@@@Z ; wrapped_invoker<int (__cdecl*)(__int64,_wfinddata32_t *),&_wfindnext32>::call
_o__wfindnext32i64 = ?call@?$wrapped_invoker@P6AH_JPEAU_wfinddata32i64_t@@@Z$1?_wfindnext32i64@@YAH01@Z@@SAH_JPEAU_wfinddata32i64_t@@@Z ; wrapped_invoker<int (__cdecl*)(__int64,_wfinddata32i64_t *),&_wfindnext32i64>::call
_o__wfindnext64 = ?call@?$wrapped_invoker@P6AH_JPEAU_wfinddata64_t@@@Z$1?_wfindnext64@@YAH01@Z@@SAH_JPEAU_wfinddata64_t@@@Z ; wrapped_invoker<int (__cdecl*)(__int64,_wfinddata64_t *),&_wfindnext64>::call
_o__wfindnext64i32 = ?call@?$wrapped_invoker@P6AH_JPEAU_wfinddata64i32_t@@@Z$1?_wfindnext64i32@@YAH01@Z@@SAH_JPEAU_wfinddata64i32_t@@@Z ; wrapped_invoker<int (__cdecl*)(__int64,_wfinddata64i32_t *),&_wfindnext64i32>::call
_o__wfopen = ?call@?$wrapped_invoker@P6APEAU_iobuf@@PEB_W0@Z$1?_wfopen@@YAPEAU1@00@Z@@SAPEAU_iobuf@@PEB_W0@Z ; wrapped_invoker<_iobuf * (__cdecl*)(wchar_t const *,wchar_t const *),&_wfopen>::call
_o__wfopen_s = ?call@?$wrapped_invoker@P6AHPEAPEAU_iobuf@@PEB_W1@Z$1?_wfopen_s@@YAH011@Z@@SAHPEAPEAU_iobuf@@PEB_W1@Z ; wrapped_invoker<int (__cdecl*)(_iobuf * *,wchar_t const *,wchar_t const *),&_wfopen_s>::call
_o__wfreopen = ?call@?$wrapped_invoker@P6APEAU_iobuf@@PEB_W0PEAU1@@Z$1?_wfreopen@@YAPEAU1@001@Z@@SAPEAU_iobuf@@PEB_W0PEAU2@@Z ; wrapped_invoker<_iobuf * (__cdecl*)(wchar_t const *,wchar_t const *,_iobuf *),&_wfreopen>::call
_o__wfreopen_s = ?call@?$wrapped_invoker@P6AHPEAPEAU_iobuf@@PEB_W1PEAU1@@Z$1?_wfreopen_s@@YAH0112@Z@@SAHPEAPEAU_iobuf@@PEB_W1PEAU2@@Z ; wrapped_invoker<int (__cdecl*)(_iobuf * *,wchar_t const *,wchar_t const *,_iobuf *),&_wfreopen_s>::call
_o__wfsopen = ?call@?$wrapped_invoker@P6APEAU_iobuf@@PEB_W0H@Z$1?_wfsopen@@YAPEAU1@00H@Z@@SAPEAU_iobuf@@PEB_W0H@Z ; wrapped_invoker<_iobuf * (__cdecl*)(wchar_t const *,wchar_t const *,int),&_wfsopen>::call
_o__wfullpath = ?call@?$wrapped_invoker@P6APEA_WPEA_WPEB_W_K@Z$1?_wfullpath@@YAPEA_W012@Z@@SAPEA_WPEA_WPEB_W_K@Z ; wrapped_invoker<wchar_t * (__cdecl*)(wchar_t *,wchar_t const *,unsigned __int64),&_wfullpath>::call
_o__wgetcwd = ?call@?$wrapped_invoker@P6APEA_WPEA_WH@Z$1?_wgetcwd@@YAPEA_W0H@Z@@SAPEA_WPEA_WH@Z ; wrapped_invoker<wchar_t * (__cdecl*)(wchar_t *,int),&_wgetcwd>::call
_o__wgetdcwd = ?call@?$wrapped_invoker@P6APEA_WHPEA_WH@Z$1?_wgetdcwd@@YAPEA_WH0H@Z@@SAPEA_WHPEA_WH@Z ; wrapped_invoker<wchar_t * (__cdecl*)(int,wchar_t *,int),&_wgetdcwd>::call
_o__wgetenv = ?call@?$wrapped_invoker@P6APEA_WPEB_W@Z$1?_wgetenv@@YAPEA_W0@Z@@SAPEA_WPEB_W@Z ; wrapped_invoker<wchar_t * (__cdecl*)(wchar_t const *),&_wgetenv>::call
_o__wgetenv_s = ?call@?$wrapped_invoker@P6AHPEA_KPEA_W_KPEB_W@Z$1?_wgetenv_s@@YAH0123@Z@@SAHPEA_KPEA_W_KPEB_W@Z ; wrapped_invoker<int (__cdecl*)(unsigned __int64 *,wchar_t *,unsigned __int64,wchar_t const *),&_wgetenv_s>::call
_o__wmakepath = ?call@?$wrapped_invoker@P6AXPEA_WPEB_W111@Z$1?_wmakepath@@YAX01111@Z@@SAXPEA_WPEB_W111@Z ; wrapped_invoker<void (__cdecl*)(wchar_t *,wchar_t const *,wchar_t const *,wchar_t const *,wchar_t const *),&_wmakepath>::call
_o__wmakepath_s = ?call@?$wrapped_invoker@P6AHPEA_W_KPEB_W222@Z$1?_wmakepath_s@@YAH012222@Z@@SAHPEA_W_KPEB_W222@Z ; wrapped_invoker<int (__cdecl*)(wchar_t *,unsigned __int64,wchar_t const *,wchar_t const *,wchar_t const *,wchar_t const *),&_wmakepath_s>::call
_o__wmkdir = ?call@?$wrapped_invoker@P6AHPEB_W@Z$1?_wmkdir@@YAH0@Z@@SAHPEB_W@Z ; wrapped_invoker<int (__cdecl*)(wchar_t const *),&_wmkdir>::call
_o__wmktemp = ?call@?$wrapped_invoker@P6APEA_WPEA_W@Z$1?_wmktemp@@YAPEA_W0@Z@@SAPEA_WPEA_W@Z ; wrapped_invoker<wchar_t * (__cdecl*)(wchar_t *),&_wmktemp>::call
_o__wmktemp_s = ?call@?$wrapped_invoker@P6AHPEA_W_K@Z$1?_wmktemp_s@@YAH01@Z@@SAHPEA_W_K@Z ; wrapped_invoker<int (__cdecl*)(wchar_t *,unsigned __int64),&_wmktemp_s>::call
_o__wperror = ?call@?$wrapped_invoker@P6AXPEB_W@Z$1?_wperror@@YAX0@Z@@SAXPEB_W@Z ; wrapped_invoker<void (__cdecl*)(wchar_t const *),&_wperror>::call
_o__wpopen = ?call@?$wrapped_invoker@P6APEAU_iobuf@@PEB_W0@Z$1?_wpopen@@YAPEAU1@00@Z@@SAPEAU_iobuf@@PEB_W0@Z ; wrapped_invoker<_iobuf * (__cdecl*)(wchar_t const *,wchar_t const *),&_wpopen>::call
_o__wputenv = ?call@?$wrapped_invoker@P6AHPEB_W@Z$1?_wputenv@@YAH0@Z@@SAHPEB_W@Z ; wrapped_invoker<int (__cdecl*)(wchar_t const *),&_wputenv>::call
_o__wputenv_s = ?call@?$wrapped_invoker@P6AHPEB_W0@Z$1?_wputenv_s@@YAH00@Z@@SAHPEB_W0@Z ; wrapped_invoker<int (__cdecl*)(wchar_t const *,wchar_t const *),&_wputenv_s>::call
_o__wremove = ?call@?$wrapped_invoker@P6AHPEB_W@Z$1?_wremove@@YAH0@Z@@SAHPEB_W@Z ; wrapped_invoker<int (__cdecl*)(wchar_t const *),&_wremove>::call
_o__wrename = ?call@?$wrapped_invoker@P6AHPEB_W0@Z$1?_wrename@@YAH00@Z@@SAHPEB_W0@Z ; wrapped_invoker<int (__cdecl*)(wchar_t const *,wchar_t const *),&_wrename>::call
_o__write = ?call@?$wrapped_invoker@P6AHHPEBXI@Z$1?_write@@YAHH0I@Z@@SAHHPEBXI@Z ; wrapped_invoker<int (__cdecl*)(int,void const *,unsigned int),&_write>::call
_o__wrmdir = ?call@?$wrapped_invoker@P6AHPEB_W@Z$1?_wrmdir@@YAH0@Z@@SAHPEB_W@Z ; wrapped_invoker<int (__cdecl*)(wchar_t const *),&_wrmdir>::call
_o__wsearchenv = ?call@?$wrapped_invoker@P6AXPEB_W0PEA_W@Z$1?_wsearchenv@@YAX001@Z@@SAXPEB_W0PEA_W@Z ; wrapped_invoker<void (__cdecl*)(wchar_t const *,wchar_t const *,wchar_t *),&_wsearchenv>::call
_o__wsearchenv_s = ?call@?$wrapped_invoker@P6AHPEB_W0PEA_W_K@Z$1?_wsearchenv_s@@YAH0012@Z@@SAHPEB_W0PEA_W_K@Z ; wrapped_invoker<int (__cdecl*)(wchar_t const *,wchar_t const *,wchar_t *,unsigned __int64),&_wsearchenv_s>::call
_o__wsetlocale = ?call@?$wrapped_invoker@P6APEA_WHPEB_W@Z$1?_wsetlocale@@YAPEA_WH0@Z@@SAPEA_WHPEB_W@Z ; wrapped_invoker<wchar_t * (__cdecl*)(int,wchar_t const *),&_wsetlocale>::call
_o__wsopen_dispatch = ?call@?$wrapped_invoker@P6AHPEB_WHHHPEAHH@Z$1?_wsopen_dispatch@@YAH0HHH1H@Z@@SAHPEB_WHHHPEAHH@Z ; wrapped_invoker<int (__cdecl*)(wchar_t const *,int,int,int,int *,int),&_wsopen_dispatch>::call
_o__wsopen_s = ?call@?$wrapped_invoker@P6AHPEAHPEB_WHHH@Z$1?_wsopen_s@@YAH01HHH@Z@@SAHPEAHPEB_WHHH@Z ; wrapped_invoker<int (__cdecl*)(int *,wchar_t const *,int,int,int),&_wsopen_s>::call
_o__wspawnv = ?call@?$wrapped_invoker@P6A_JHPEB_WPEBQEB_W@Z$1?_wspawnv@@YA_JH01@Z@@SA_JHPEB_WPEBQEB_W@Z ; wrapped_invoker<__int64 (__cdecl*)(int,wchar_t const *,wchar_t const * const *),&_wspawnv>::call
_o__wspawnve = ?call@?$wrapped_invoker@P6A_JHPEB_WPEBQEB_W1@Z$1?_wspawnve@@YA_JH011@Z@@SA_JHPEB_WPEBQEB_W1@Z ; wrapped_invoker<__int64 (__cdecl*)(int,wchar_t const *,wchar_t const * const *,wchar_t const * const *),&_wspawnve>::call
_o__wspawnvp = ?call@?$wrapped_invoker@P6A_JHPEB_WPEBQEB_W@Z$1?_wspawnvp@@YA_JH01@Z@@SA_JHPEB_WPEBQEB_W@Z ; wrapped_invoker<__int64 (__cdecl*)(int,wchar_t const *,wchar_t const * const *),&_wspawnvp>::call
_o__wspawnvpe = ?call@?$wrapped_invoker@P6A_JHPEB_WPEBQEB_W1@Z$1?_wspawnvpe@@YA_JH011@Z@@SA_JHPEB_WPEBQEB_W1@Z ; wrapped_invoker<__int64 (__cdecl*)(int,wchar_t const *,wchar_t const * const *,wchar_t const * const *),&_wspawnvpe>::call
_o__wsplitpath = ?call@?$wrapped_invoker@P6AXPEB_WPEA_W111@Z$1?_wsplitpath@@YAX01111@Z@@SAXPEB_WPEA_W111@Z ; wrapped_invoker<void (__cdecl*)(wchar_t const *,wchar_t *,wchar_t *,wchar_t *,wchar_t *),&_wsplitpath>::call
_o__wsplitpath_s = ?call@?$wrapped_invoker@P6AHPEB_WPEA_W_K121212@Z$1?_wsplitpath_s@@YAH012121212@Z@@SAHPEB_WPEA_W_K121212@Z ; wrapped_invoker<int (__cdecl*)(wchar_t const *,wchar_t *,unsigned __int64,wchar_t *,unsigned __int64,wchar_t *,unsigned __int64,wchar_t *,unsigned __int64),&_wsplitpath_s>::call
_o__wstat32 = ?call@?$wrapped_invoker@P6AHPEB_WPEAU_stat32@@@Z$1?_wstat32@@YAH01@Z@@SAHPEB_WPEAU_stat32@@@Z ; wrapped_invoker<int (__cdecl*)(wchar_t const *,_stat32 *),&_wstat32>::call
_o__wstat32i64 = ?call@?$wrapped_invoker@P6AHPEB_WPEAU_stat32i64@@@Z$1?_wstat32i64@@YAH01@Z@@SAHPEB_WPEAU_stat32i64@@@Z ; wrapped_invoker<int (__cdecl*)(wchar_t const *,_stat32i64 *),&_wstat32i64>::call
_o__wstat64 = ?call@?$wrapped_invoker@P6AHPEB_WPEAU_stat64@@@Z$1?_wstat64@@YAH01@Z@@SAHPEB_WPEAU_stat64@@@Z ; wrapped_invoker<int (__cdecl*)(wchar_t const *,_stat64 *),&_wstat64>::call
_o__wstat64i32 = ?call@?$wrapped_invoker@P6AHPEB_WPEAU_stat64i32@@@Z$1?_wstat64i32@@YAH01@Z@@SAHPEB_WPEAU_stat64i32@@@Z ; wrapped_invoker<int (__cdecl*)(wchar_t const *,_stat64i32 *),&_wstat64i32>::call
_o__wstrdate = ?call@?$wrapped_invoker@P6APEA_WPEA_W@Z$1?_wstrdate@@YAPEA_W0@Z@@SAPEA_WPEA_W@Z ; wrapped_invoker<wchar_t * (__cdecl*)(wchar_t *),&_wstrdate>::call
_o__wstrdate_s = ?call@?$wrapped_invoker@P6AHPEA_W_K@Z$1?_wstrdate_s@@YAH01@Z@@SAHPEA_W_K@Z ; wrapped_invoker<int (__cdecl*)(wchar_t *,unsigned __int64),&_wstrdate_s>::call
_o__wstrtime = ?call@?$wrapped_invoker@P6APEA_WPEA_W@Z$1?_wstrtime@@YAPEA_W0@Z@@SAPEA_WPEA_W@Z ; wrapped_invoker<wchar_t * (__cdecl*)(wchar_t *),&_wstrtime>::call
_o__wstrtime_s = ?call@?$wrapped_invoker@P6AHPEA_W_K@Z$1?_wstrtime_s@@YAH01@Z@@SAHPEA_W_K@Z ; wrapped_invoker<int (__cdecl*)(wchar_t *,unsigned __int64),&_wstrtime_s>::call
_o__wsystem = ?call@?$wrapped_invoker@P6AHPEB_W@Z$1?_wsystem@@YAH0@Z@@SAHPEB_W@Z ; wrapped_invoker<int (__cdecl*)(wchar_t const *),&_wsystem>::call
_o__wtmpnam_s = ?call@?$wrapped_invoker@P6AHPEA_W_K@Z$1?_wtmpnam_s@@YAH01@Z@@SAHPEA_W_K@Z ; wrapped_invoker<int (__cdecl*)(wchar_t *,unsigned __int64),&_wtmpnam_s>::call
_o__wtof = ?call@?$wrapped_invoker@P6ANPEB_W@Z$1?_wtof@@YAN0@Z@@SANPEB_W@Z ; wrapped_invoker<double (__cdecl*)(wchar_t const *),&_wtof>::call
_o__wtof_l = ?call@?$wrapped_invoker@P6ANPEB_WPEAU__crt_locale_pointers@@@Z$1?_wtof_l@@YAN01@Z@@SANPEB_WPEAU__crt_locale_pointers@@@Z ; wrapped_invoker<double (__cdecl*)(wchar_t const *,__crt_locale_pointers *),&_wtof_l>::call
_o__wtoi = ?call@?$wrapped_invoker@P6AHPEB_W@Z$1?_wtoi@@YAH0@Z@@SAHPEB_W@Z ; wrapped_invoker<int (__cdecl*)(wchar_t const *),&_wtoi>::call
_o__wtoi64 = ?call@?$wrapped_invoker@P6A_JPEB_W@Z$1?_wtoi64@@YA_J0@Z@@SA_JPEB_W@Z ; wrapped_invoker<__int64 (__cdecl*)(wchar_t const *),&_wtoi64>::call
_o__wtoi64_l = ?call@?$wrapped_invoker@P6A_JPEB_WPEAU__crt_locale_pointers@@@Z$1?_wtoi64_l@@YA_J01@Z@@SA_JPEB_WPEAU__crt_locale_pointers@@@Z ; wrapped_invoker<__int64 (__cdecl*)(wchar_t const *,__crt_locale_pointers *),&_wtoi64_l>::call
_o__wtoi_l = ?call@?$wrapped_invoker@P6AHPEB_WPEAU__crt_locale_pointers@@@Z$1?_wtoi_l@@YAH01@Z@@SAHPEB_WPEAU__crt_locale_pointers@@@Z ; wrapped_invoker<int (__cdecl*)(wchar_t const *,__crt_locale_pointers *),&_wtoi_l>::call
_o__wtol = ?call@?$wrapped_invoker@P6AJPEB_W@Z$1?_wtol@@YAJ0@Z@@SAJPEB_W@Z ; wrapped_invoker<long (__cdecl*)(wchar_t const *),&_wtol>::call
_o__wtol_l = ?call@?$wrapped_invoker@P6AJPEB_WPEAU__crt_locale_pointers@@@Z$1?_wtol_l@@YAJ01@Z@@SAJPEB_WPEAU__crt_locale_pointers@@@Z ; wrapped_invoker<long (__cdecl*)(wchar_t const *,__crt_locale_pointers *),&_wtol_l>::call
_o__wtoll = ?call@?$wrapped_invoker@P6A_JPEB_W@Z$1?_wtoll@@YA_J0@Z@@SA_JPEB_W@Z ; wrapped_invoker<__int64 (__cdecl*)(wchar_t const *),&_wtoll>::call
_o__wtoll_l = ?call@?$wrapped_invoker@P6A_JPEB_WPEAU__crt_locale_pointers@@@Z$1?_wtoll_l@@YA_J01@Z@@SA_JPEB_WPEAU__crt_locale_pointers@@@Z ; wrapped_invoker<__int64 (__cdecl*)(wchar_t const *,__crt_locale_pointers *),&_wtoll_l>::call
_o__wunlink = ?call@?$wrapped_invoker@P6AHPEB_W@Z$1?_wunlink@@YAH0@Z@@SAHPEB_W@Z ; wrapped_invoker<int (__cdecl*)(wchar_t const *),&_wunlink>::call
_o__wutime32 = ?call@?$wrapped_invoker@P6AHPEB_WPEAU__utimbuf32@@@Z$1?_wutime32@@YAH01@Z@@SAHPEB_WPEAU__utimbuf32@@@Z ; wrapped_invoker<int (__cdecl*)(wchar_t const *,__utimbuf32 *),&_wutime32>::call
_o__wutime64 = ?call@?$wrapped_invoker@P6AHPEB_WPEAU__utimbuf64@@@Z$1?_wutime64@@YAH01@Z@@SAHPEB_WPEAU__utimbuf64@@@Z ; wrapped_invoker<int (__cdecl*)(wchar_t const *,__utimbuf64 *),&_wutime64>::call
_o__y0 = ?call@?$wrapped_invoker@P6ANN@Z$1?_y0@@YANN@Z@@SANN@Z ; wrapped_invoker<double (__cdecl*)(double),&_y0>::call
_o__y1 = ?call@?$wrapped_invoker@P6ANN@Z$1?_y1@@YANN@Z@@SANN@Z ; wrapped_invoker<double (__cdecl*)(double),&_y1>::call
_o__yn = ?call@?$wrapped_invoker@P6ANHN@Z$1?_yn@@YANHN@Z@@SANHN@Z ; wrapped_invoker<double (__cdecl*)(int,double),&_yn>::call
_o_abort = ?call@?$wrapped_invoker@P6AXXZ$1?abort@@YAXXZ@@SAXXZ ; wrapped_invoker<void (__cdecl*)(void),&abort>::call
_o_acos = ?call@?$wrapped_invoker@P6ANN@Z$1?acos@@YANN@Z@@SANN@Z ; wrapped_invoker<double (__cdecl*)(double),&acos>::call
_o_acosf = ?call@?$wrapped_invoker@P6AMM@Z$1?acosf@@YAMM@Z@@SAMM@Z ; wrapped_invoker<float (__cdecl*)(float),&acosf>::call
_o_acosh = ?call@?$wrapped_invoker@P6ANN@Z$1?acosh@@YANN@Z@@SANN@Z ; wrapped_invoker<double (__cdecl*)(double),&acosh>::call
_o_acoshf = ?call@?$wrapped_invoker@P6AMM@Z$1?acoshf@@YAMM@Z@@SAMM@Z ; wrapped_invoker<float (__cdecl*)(float),&acoshf>::call
_o_acoshl = ?call@?$wrapped_invoker@P6AOO@Z$1?acoshl@@YAOO@Z@@SAOO@Z ; wrapped_invoker<long double (__cdecl*)(long double),&acoshl>::call
_o_asctime = ?call@?$wrapped_invoker@P6APEADPEBUtm@@@Z$1?asctime@@YAPEAD0@Z@@SAPEADPEBUtm@@@Z ; wrapped_invoker<char * (__cdecl*)(tm const *),&asctime>::call
_o_asctime_s = ?call@?$wrapped_invoker@P6AHPEAD_KPEBUtm@@@Z$1?asctime_s@@YAH012@Z@@SAHPEAD_KPEBUtm@@@Z ; wrapped_invoker<int (__cdecl*)(char *,unsigned __int64,tm const *),&asctime_s>::call
_o_asin = ?call@?$wrapped_invoker@P6ANN@Z$1?asin@@YANN@Z@@SANN@Z ; wrapped_invoker<double (__cdecl*)(double),&asin>::call
_o_asinf = ?call@?$wrapped_invoker@P6AMM@Z$1?asinf@@YAMM@Z@@SAMM@Z ; wrapped_invoker<float (__cdecl*)(float),&asinf>::call
_o_asinh = ?call@?$wrapped_invoker@P6ANN@Z$1?asinh@@YANN@Z@@SANN@Z ; wrapped_invoker<double (__cdecl*)(double),&asinh>::call
_o_asinhf = ?call@?$wrapped_invoker@P6AMM@Z$1?asinhf@@YAMM@Z@@SAMM@Z ; wrapped_invoker<float (__cdecl*)(float),&asinhf>::call
_o_asinhl = ?call@?$wrapped_invoker@P6AOO@Z$1?asinhl@@YAOO@Z@@SAOO@Z ; wrapped_invoker<long double (__cdecl*)(long double),&asinhl>::call
_o_atan = ?call@?$wrapped_invoker@P6ANN@Z$1?atan@@YANN@Z@@SANN@Z ; wrapped_invoker<double (__cdecl*)(double),&atan>::call
_o_atan2 = ?call@?$wrapped_invoker@P6ANNN@Z$1?atan2@@YANNN@Z@@SANNN@Z ; wrapped_invoker<double (__cdecl*)(double,double),&atan2>::call
_o_atan2f = ?call@?$wrapped_invoker@P6AMMM@Z$1?atan2f@@YAMMM@Z@@SAMMM@Z ; wrapped_invoker<float (__cdecl*)(float,float),&atan2f>::call
_o_atanf = ?call@?$wrapped_invoker@P6AMM@Z$1?atanf@@YAMM@Z@@SAMM@Z ; wrapped_invoker<float (__cdecl*)(float),&atanf>::call
_o_atanh = ?call@?$wrapped_invoker@P6ANN@Z$1?atanh@@YANN@Z@@SANN@Z ; wrapped_invoker<double (__cdecl*)(double),&atanh>::call
_o_atanhf = ?call@?$wrapped_invoker@P6AMM@Z$1?atanhf@@YAMM@Z@@SAMM@Z ; wrapped_invoker<float (__cdecl*)(float),&atanhf>::call
_o_atanhl = ?call@?$wrapped_invoker@P6AOO@Z$1?atanhl@@YAOO@Z@@SAOO@Z ; wrapped_invoker<long double (__cdecl*)(long double),&atanhl>::call
_o_atof = ?call@?$wrapped_invoker@P6ANPEBD@Z$1?atof@@YAN0@Z@@SANPEBD@Z ; wrapped_invoker<double (__cdecl*)(char const *),&atof>::call
_o_atoi = ?call@?$wrapped_invoker@P6AHPEBD@Z$1?atoi@@YAH0@Z@@SAHPEBD@Z ; wrapped_invoker<int (__cdecl*)(char const *),&atoi>::call
_o_atol = ?call@?$wrapped_invoker@P6AJPEBD@Z$1?atol@@YAJ0@Z@@SAJPEBD@Z ; wrapped_invoker<long (__cdecl*)(char const *),&atol>::call
_o_atoll = ?call@?$wrapped_invoker@P6A_JPEBD@Z$1?atoll@@YA_J0@Z@@SA_JPEBD@Z ; wrapped_invoker<__int64 (__cdecl*)(char const *),&atoll>::call
_o_bsearch = ?call@?$wrapped_invoker@P6APEAXPEBX0_K1P6AH00@Z@Z$1?bsearch@@YAPEAX00112@Z@@SAPEAXPEBX0_K1P6AH00@Z@Z ; wrapped_invoker<void * (__cdecl*)(void const *,void const *,unsigned __int64,unsigned __int64,int (__cdecl*)(void const *,void const *)),&bsearch>::call
_o_bsearch_s = ?call@?$wrapped_invoker@P6APEAXPEBX0_K1P6AHPEAX00@Z2@Z$1?bsearch_s@@YAPEAX001132@Z@@SAPEAXPEBX0_K1P6AHPEAX00@Z2@Z ; wrapped_invoker<void * (__cdecl*)(void const *,void const *,unsigned __int64,unsigned __int64,int (__cdecl*)(void *,void const *,void const *),void *),&bsearch_s>::call
_o_btowc = ?call@?$wrapped_invoker@P6AGH@Z$1?btowc@@YAGH@Z@@SAGH@Z ; wrapped_invoker<unsigned short (__cdecl*)(int),&btowc>::call
_o_calloc = ?call@?$wrapped_invoker@P6APEAX_K0@Z$1?calloc@@YAPEAX00@Z@@SAPEAX_K0@Z ; wrapped_invoker<void * (__cdecl*)(unsigned __int64,unsigned __int64),&calloc>::call
_o_cbrt = ?call@?$wrapped_invoker@P6ANN@Z$1?cbrt@@YANN@Z@@SANN@Z ; wrapped_invoker<double (__cdecl*)(double),&cbrt>::call
_o_cbrtf = ?call@?$wrapped_invoker@P6AMM@Z$1?cbrtf@@YAMM@Z@@SAMM@Z ; wrapped_invoker<float (__cdecl*)(float),&cbrtf>::call
_o_ceil = ?call@?$wrapped_invoker@P6ANN@Z$1?ceil@@YANN@Z@@SANN@Z ; wrapped_invoker<double (__cdecl*)(double),&ceil>::call
_o_ceilf = ?call@?$wrapped_invoker@P6AMM@Z$1?ceilf@@YAMM@Z@@SAMM@Z ; wrapped_invoker<float (__cdecl*)(float),&ceilf>::call
_o_clearerr = ?call@?$wrapped_invoker@P6AXPEAU_iobuf@@@Z$1?clearerr@@YAX0@Z@@SAXPEAU_iobuf@@@Z ; wrapped_invoker<void (__cdecl*)(_iobuf *),&clearerr>::call
_o_clearerr_s = ?call@?$wrapped_invoker@P6AHPEAU_iobuf@@@Z$1?clearerr_s@@YAH0@Z@@SAHPEAU_iobuf@@@Z ; wrapped_invoker<int (__cdecl*)(_iobuf *),&clearerr_s>::call
_o_cos = ?call@?$wrapped_invoker@P6ANN@Z$1?cos@@YANN@Z@@SANN@Z ; wrapped_invoker<double (__cdecl*)(double),&cos>::call
_o_cosf = ?call@?$wrapped_invoker@P6AMM@Z$1?cosf@@YAMM@Z@@SAMM@Z ; wrapped_invoker<float (__cdecl*)(float),&cosf>::call
_o_cosh = ?call@?$wrapped_invoker@P6ANN@Z$1?cosh@@YANN@Z@@SANN@Z ; wrapped_invoker<double (__cdecl*)(double),&cosh>::call
_o_coshf = ?call@?$wrapped_invoker@P6AMM@Z$1?coshf@@YAMM@Z@@SAMM@Z ; wrapped_invoker<float (__cdecl*)(float),&coshf>::call
_o_erf = ?call@?$wrapped_invoker@P6ANN@Z$1?erf@@YANN@Z@@SANN@Z ; wrapped_invoker<double (__cdecl*)(double),&erf>::call
_o_erfc = ?call@?$wrapped_invoker@P6ANN@Z$1?erfc@@YANN@Z@@SANN@Z ; wrapped_invoker<double (__cdecl*)(double),&erfc>::call
_o_erfcf = ?call@?$wrapped_invoker@P6AMM@Z$1?erfcf@@YAMM@Z@@SAMM@Z ; wrapped_invoker<float (__cdecl*)(float),&erfcf>::call
_o_erfcl = ?call@?$wrapped_invoker@P6AOO@Z$1?erfcl@@YAOO@Z@@SAOO@Z ; wrapped_invoker<long double (__cdecl*)(long double),&erfcl>::call
_o_erff = ?call@?$wrapped_invoker@P6AMM@Z$1?erff@@YAMM@Z@@SAMM@Z ; wrapped_invoker<float (__cdecl*)(float),&erff>::call
_o_erfl = ?call@?$wrapped_invoker@P6AOO@Z$1?erfl@@YAOO@Z@@SAOO@Z ; wrapped_invoker<long double (__cdecl*)(long double),&erfl>::call
_o_exit = ?call@?$wrapped_invoker@P6AXH@Z$1?exit@@YAXH@Z@@SAXH@Z ; wrapped_invoker<void (__cdecl*)(int),&exit>::call
_o_exp = ?call@?$wrapped_invoker@P6ANN@Z$1?exp@@YANN@Z@@SANN@Z ; wrapped_invoker<double (__cdecl*)(double),&exp>::call
_o_exp2 = ?call@?$wrapped_invoker@P6ANN@Z$1?exp2@@YANN@Z@@SANN@Z ; wrapped_invoker<double (__cdecl*)(double),&exp2>::call
_o_exp2f = ?call@?$wrapped_invoker@P6AMM@Z$1?exp2f@@YAMM@Z@@SAMM@Z ; wrapped_invoker<float (__cdecl*)(float),&exp2f>::call
_o_exp2l = ?call@?$wrapped_invoker@P6AOO@Z$1?exp2l@@YAOO@Z@@SAOO@Z ; wrapped_invoker<long double (__cdecl*)(long double),&exp2l>::call
_o_expf = ?call@?$wrapped_invoker@P6AMM@Z$1?expf@@YAMM@Z@@SAMM@Z ; wrapped_invoker<float (__cdecl*)(float),&expf>::call
_o_fabs = ?call@?$wrapped_invoker@P6ANN@Z$1?fabs@@YANN@Z@@SANN@Z ; wrapped_invoker<double (__cdecl*)(double),&fabs>::call
_o_fclose = ?call@?$wrapped_invoker@P6AHPEAU_iobuf@@@Z$1?fclose@@YAH0@Z@@SAHPEAU_iobuf@@@Z ; wrapped_invoker<int (__cdecl*)(_iobuf *),&fclose>::call
_o_feof = ?call@?$wrapped_invoker@P6AHPEAU_iobuf@@@Z$1?feof@@YAH0@Z@@SAHPEAU_iobuf@@@Z ; wrapped_invoker<int (__cdecl*)(_iobuf *),&feof>::call
_o_ferror = ?call@?$wrapped_invoker@P6AHPEAU_iobuf@@@Z$1?ferror@@YAH0@Z@@SAHPEAU_iobuf@@@Z ; wrapped_invoker<int (__cdecl*)(_iobuf *),&ferror>::call
_o_fflush = ?call@?$wrapped_invoker@P6AHPEAU_iobuf@@@Z$1?fflush@@YAH0@Z@@SAHPEAU_iobuf@@@Z ; wrapped_invoker<int (__cdecl*)(_iobuf *),&fflush>::call
_o_fgetc = ?call@?$wrapped_invoker@P6AHPEAU_iobuf@@@Z$1?fgetc@@YAH0@Z@@SAHPEAU_iobuf@@@Z ; wrapped_invoker<int (__cdecl*)(_iobuf *),&fgetc>::call
_o_fgetpos = ?call@?$wrapped_invoker@P6AHPEAU_iobuf@@PEA_J@Z$1?fgetpos@@YAH01@Z@@SAHPEAU_iobuf@@PEA_J@Z ; wrapped_invoker<int (__cdecl*)(_iobuf *,__int64 *),&fgetpos>::call
_o_fgets = ?call@?$wrapped_invoker@P6APEADPEADHPEAU_iobuf@@@Z$1?fgets@@YAPEAD0H1@Z@@SAPEADPEADHPEAU_iobuf@@@Z ; wrapped_invoker<char * (__cdecl*)(char *,int,_iobuf *),&fgets>::call
_o_fgetwc = ?call@?$wrapped_invoker@P6AGPEAU_iobuf@@@Z$1?fgetwc@@YAG0@Z@@SAGPEAU_iobuf@@@Z ; wrapped_invoker<unsigned short (__cdecl*)(_iobuf *),&fgetwc>::call
_o_fgetws = ?call@?$wrapped_invoker@P6APEA_WPEA_WHPEAU_iobuf@@@Z$1?fgetws@@YAPEA_W0H1@Z@@SAPEA_WPEA_WHPEAU_iobuf@@@Z ; wrapped_invoker<wchar_t * (__cdecl*)(wchar_t *,int,_iobuf *),&fgetws>::call
_o_floor = ?call@?$wrapped_invoker@P6ANN@Z$1?floor@@YANN@Z@@SANN@Z ; wrapped_invoker<double (__cdecl*)(double),&floor>::call
_o_floorf = ?call@?$wrapped_invoker@P6AMM@Z$1?floorf@@YAMM@Z@@SAMM@Z ; wrapped_invoker<float (__cdecl*)(float),&floorf>::call
_o_fma = ?call@?$wrapped_invoker@P6ANNNN@Z$1?fma@@YANNNN@Z@@SANNNN@Z ; wrapped_invoker<double (__cdecl*)(double,double,double),&fma>::call
_o_fmaf = ?call@?$wrapped_invoker@P6AMMMM@Z$1?fmaf@@YAMMMM@Z@@SAMMMM@Z ; wrapped_invoker<float (__cdecl*)(float,float,float),&fmaf>::call
_o_fmal = ?call@?$wrapped_invoker@P6AOOOO@Z$1?fmal@@YAOOOO@Z@@SAOOOO@Z ; wrapped_invoker<long double (__cdecl*)(long double,long double,long double),&fmal>::call
_o_fmod = ?call@?$wrapped_invoker@P6ANNN@Z$1?fmod@@YANNN@Z@@SANNN@Z ; wrapped_invoker<double (__cdecl*)(double,double),&fmod>::call
_o_fmodf = ?call@?$wrapped_invoker@P6AMMM@Z$1?fmodf@@YAMMM@Z@@SAMMM@Z ; wrapped_invoker<float (__cdecl*)(float,float),&fmodf>::call
_o_fopen = ?call@?$wrapped_invoker@P6APEAU_iobuf@@PEBD0@Z$1?fopen@@YAPEAU1@00@Z@@SAPEAU_iobuf@@PEBD0@Z ; wrapped_invoker<_iobuf * (__cdecl*)(char const *,char const *),&fopen>::call
_o_fopen_s = ?call@?$wrapped_invoker@P6AHPEAPEAU_iobuf@@PEBD1@Z$1?fopen_s@@YAH011@Z@@SAHPEAPEAU_iobuf@@PEBD1@Z ; wrapped_invoker<int (__cdecl*)(_iobuf * *,char const *,char const *),&fopen_s>::call
_o_fputc = ?call@?$wrapped_invoker@P6AHHPEAU_iobuf@@@Z$1?fputc@@YAHH0@Z@@SAHHPEAU_iobuf@@@Z ; wrapped_invoker<int (__cdecl*)(int,_iobuf *),&fputc>::call
_o_fputs = ?call@?$wrapped_invoker@P6AHPEBDPEAU_iobuf@@@Z$1?fputs@@YAH01@Z@@SAHPEBDPEAU_iobuf@@@Z ; wrapped_invoker<int (__cdecl*)(char const *,_iobuf *),&fputs>::call
_o_fputwc = ?call@?$wrapped_invoker@P6AG_WPEAU_iobuf@@@Z$1?fputwc@@YAG01@Z@@SAG_WPEAU_iobuf@@@Z ; wrapped_invoker<unsigned short (__cdecl*)(wchar_t,_iobuf *),&fputwc>::call
_o_fputws = ?call@?$wrapped_invoker@P6AHPEB_WPEAU_iobuf@@@Z$1?fputws@@YAH01@Z@@SAHPEB_WPEAU_iobuf@@@Z ; wrapped_invoker<int (__cdecl*)(wchar_t const *,_iobuf *),&fputws>::call
_o_fread = ?call@?$wrapped_invoker@P6A_KPEAX_K1PEAU_iobuf@@@Z$1?fread@@YA_K0112@Z@@SA_KPEAX_K1PEAU_iobuf@@@Z ; wrapped_invoker<unsigned __int64 (__cdecl*)(void *,unsigned __int64,unsigned __int64,_iobuf *),&fread>::call
_o_fread_s = ?call@?$wrapped_invoker@P6A_KPEAX_K11PEAU_iobuf@@@Z$1?fread_s@@YA_K01112@Z@@SA_KPEAX_K11PEAU_iobuf@@@Z ; wrapped_invoker<unsigned __int64 (__cdecl*)(void *,unsigned __int64,unsigned __int64,unsigned __int64,_iobuf *),&fread_s>::call
_o_free = ?call@?$wrapped_invoker@P6AXPEAX@Z$1?free@@YAX0@Z@@SAXPEAX@Z ; wrapped_invoker<void (__cdecl*)(void *),&free>::call
_o_freopen = ?call@?$wrapped_invoker@P6APEAU_iobuf@@PEBD0PEAU1@@Z$1?freopen@@YAPEAU1@001@Z@@SAPEAU_iobuf@@PEBD0PEAU2@@Z ; wrapped_invoker<_iobuf * (__cdecl*)(char const *,char const *,_iobuf *),&freopen>::call
_o_freopen_s = ?call@?$wrapped_invoker@P6AHPEAPEAU_iobuf@@PEBD1PEAU1@@Z$1?freopen_s@@YAH0112@Z@@SAHPEAPEAU_iobuf@@PEBD1PEAU2@@Z ; wrapped_invoker<int (__cdecl*)(_iobuf * *,char const *,char const *,_iobuf *),&freopen_s>::call
_o_frexp = ?call@?$wrapped_invoker@P6ANNPEAH@Z$1?frexp@@YANN0@Z@@SANNPEAH@Z ; wrapped_invoker<double (__cdecl*)(double,int *),&frexp>::call
_o_fseek = ?call@?$wrapped_invoker@P6AHPEAU_iobuf@@JH@Z$1?fseek@@YAH0JH@Z@@SAHPEAU_iobuf@@JH@Z ; wrapped_invoker<int (__cdecl*)(_iobuf *,long,int),&fseek>::call
_o_fsetpos = ?call@?$wrapped_invoker@P6AHPEAU_iobuf@@PEB_J@Z$1?fsetpos@@YAH01@Z@@SAHPEAU_iobuf@@PEB_J@Z ; wrapped_invoker<int (__cdecl*)(_iobuf *,__int64 const *),&fsetpos>::call
_o_ftell = ?call@?$wrapped_invoker@P6AJPEAU_iobuf@@@Z$1?ftell@@YAJ0@Z@@SAJPEAU_iobuf@@@Z ; wrapped_invoker<long (__cdecl*)(_iobuf *),&ftell>::call
_o_fwrite = ?call@?$wrapped_invoker@P6A_KPEBX_K1PEAU_iobuf@@@Z$1?fwrite@@YA_K0112@Z@@SA_KPEBX_K1PEAU_iobuf@@@Z ; wrapped_invoker<unsigned __int64 (__cdecl*)(void const *,unsigned __int64,unsigned __int64,_iobuf *),&fwrite>::call
_o_getc = ?call@?$wrapped_invoker@P6AHPEAU_iobuf@@@Z$1?getc@@YAH0@Z@@SAHPEAU_iobuf@@@Z ; wrapped_invoker<int (__cdecl*)(_iobuf *),&getc>::call
_o_getchar = ?call@?$wrapped_invoker@P6AHXZ$1?getchar@@YAHXZ@@SAHXZ ; wrapped_invoker<int (__cdecl*)(void),&getchar>::call
_o_getenv = ?call@?$wrapped_invoker@P6APEADPEBD@Z$1?getenv@@YAPEAD0@Z@@SAPEADPEBD@Z ; wrapped_invoker<char * (__cdecl*)(char const *),&getenv>::call
_o_getenv_s = ?call@?$wrapped_invoker@P6AHPEA_KPEAD_KPEBD@Z$1?getenv_s@@YAH0123@Z@@SAHPEA_KPEAD_KPEBD@Z ; wrapped_invoker<int (__cdecl*)(unsigned __int64 *,char *,unsigned __int64,char const *),&getenv_s>::call
_o_gets = ?call@?$wrapped_invoker@P6APEADPEAD@Z$1?gets@@YAPEAD0@Z@@SAPEADPEAD@Z ; wrapped_invoker<char * (__cdecl*)(char *),&gets>::call
_o_gets_s = ?call@?$wrapped_invoker@P6APEADPEAD_K@Z$1?gets_s@@YAPEAD01@Z@@SAPEADPEAD_K@Z ; wrapped_invoker<char * (__cdecl*)(char *,unsigned __int64),&gets_s>::call
_o_getwc = ?call@?$wrapped_invoker@P6AGPEAU_iobuf@@@Z$1?getwc@@YAG0@Z@@SAGPEAU_iobuf@@@Z ; wrapped_invoker<unsigned short (__cdecl*)(_iobuf *),&getwc>::call
_o_getwchar = ?call@?$wrapped_invoker@P6AGXZ$1?getwchar@@YAGXZ@@SAGXZ ; wrapped_invoker<unsigned short (__cdecl*)(void),&getwchar>::call
_o_hypot = ?call@?$wrapped_invoker@P6ANNN@Z$1?hypot@@YANNN@Z@@SANNN@Z ; wrapped_invoker<double (__cdecl*)(double,double),&hypot>::call
_o_is_wctype = ?call@?$wrapped_invoker@P6AHGG@Z$1?is_wctype@@YAHGG@Z@@SAHGG@Z ; wrapped_invoker<int (__cdecl*)(unsigned short,unsigned short),&is_wctype>::call
_o_isalnum = ?call@?$wrapped_invoker@P6AHH@Z$1?isalnum@@YAHH@Z@@SAHH@Z ; wrapped_invoker<int (__cdecl*)(int),&isalnum>::call
_o_isalpha = ?call@?$wrapped_invoker@P6AHH@Z$1?isalpha@@YAHH@Z@@SAHH@Z ; wrapped_invoker<int (__cdecl*)(int),&isalpha>::call
_o_isblank = ?call@?$wrapped_invoker@P6AHH@Z$1?isblank@@YAHH@Z@@SAHH@Z ; wrapped_invoker<int (__cdecl*)(int),&isblank>::call
_o_iscntrl = ?call@?$wrapped_invoker@P6AHH@Z$1?iscntrl@@YAHH@Z@@SAHH@Z ; wrapped_invoker<int (__cdecl*)(int),&iscntrl>::call
_o_isdigit = ?call@?$wrapped_invoker@P6AHH@Z$1?isdigit@@YAHH@Z@@SAHH@Z ; wrapped_invoker<int (__cdecl*)(int),&isdigit>::call
_o_isgraph = ?call@?$wrapped_invoker@P6AHH@Z$1?isgraph@@YAHH@Z@@SAHH@Z ; wrapped_invoker<int (__cdecl*)(int),&isgraph>::call
_o_isleadbyte = ?call@?$wrapped_invoker@P6AHH@Z$1?isleadbyte@@YAHH@Z@@SAHH@Z ; wrapped_invoker<int (__cdecl*)(int),&isleadbyte>::call
_o_islower = ?call@?$wrapped_invoker@P6AHH@Z$1?islower@@YAHH@Z@@SAHH@Z ; wrapped_invoker<int (__cdecl*)(int),&islower>::call
_o_isprint = ?call@?$wrapped_invoker@P6AHH@Z$1?isprint@@YAHH@Z@@SAHH@Z ; wrapped_invoker<int (__cdecl*)(int),&isprint>::call
_o_ispunct = ?call@?$wrapped_invoker@P6AHH@Z$1?ispunct@@YAHH@Z@@SAHH@Z ; wrapped_invoker<int (__cdecl*)(int),&ispunct>::call
_o_isspace = ?call@?$wrapped_invoker@P6AHH@Z$1?isspace@@YAHH@Z@@SAHH@Z ; wrapped_invoker<int (__cdecl*)(int),&isspace>::call
_o_isupper = ?call@?$wrapped_invoker@P6AHH@Z$1?isupper@@YAHH@Z@@SAHH@Z ; wrapped_invoker<int (__cdecl*)(int),&isupper>::call
_o_iswalnum = ?call@?$wrapped_invoker@P6AHG@Z$1?iswalnum@@YAHG@Z@@SAHG@Z ; wrapped_invoker<int (__cdecl*)(unsigned short),&iswalnum>::call
_o_iswalpha = ?call@?$wrapped_invoker@P6AHG@Z$1?iswalpha@@YAHG@Z@@SAHG@Z ; wrapped_invoker<int (__cdecl*)(unsigned short),&iswalpha>::call
_o_iswascii = ?call@?$wrapped_invoker@P6AHG@Z$1?iswascii@@YAHG@Z@@SAHG@Z ; wrapped_invoker<int (__cdecl*)(unsigned short),&iswascii>::call
_o_iswblank = ?call@?$wrapped_invoker@P6AHG@Z$1?iswblank@@YAHG@Z@@SAHG@Z ; wrapped_invoker<int (__cdecl*)(unsigned short),&iswblank>::call
_o_iswcntrl = ?call@?$wrapped_invoker@P6AHG@Z$1?iswcntrl@@YAHG@Z@@SAHG@Z ; wrapped_invoker<int (__cdecl*)(unsigned short),&iswcntrl>::call
_o_iswctype = ?call@?$wrapped_invoker@P6AHGG@Z$1?iswctype@@YAHGG@Z@@SAHGG@Z ; wrapped_invoker<int (__cdecl*)(unsigned short,unsigned short),&iswctype>::call
_o_iswdigit = ?call@?$wrapped_invoker@P6AHG@Z$1?iswdigit@@YAHG@Z@@SAHG@Z ; wrapped_invoker<int (__cdecl*)(unsigned short),&iswdigit>::call
_o_iswgraph = ?call@?$wrapped_invoker@P6AHG@Z$1?iswgraph@@YAHG@Z@@SAHG@Z ; wrapped_invoker<int (__cdecl*)(unsigned short),&iswgraph>::call
_o_iswlower = ?call@?$wrapped_invoker@P6AHG@Z$1?iswlower@@YAHG@Z@@SAHG@Z ; wrapped_invoker<int (__cdecl*)(unsigned short),&iswlower>::call
_o_iswprint = ?call@?$wrapped_invoker@P6AHG@Z$1?iswprint@@YAHG@Z@@SAHG@Z ; wrapped_invoker<int (__cdecl*)(unsigned short),&iswprint>::call
_o_iswpunct = ?call@?$wrapped_invoker@P6AHG@Z$1?iswpunct@@YAHG@Z@@SAHG@Z ; wrapped_invoker<int (__cdecl*)(unsigned short),&iswpunct>::call
_o_iswspace = ?call@?$wrapped_invoker@P6AHG@Z$1?iswspace@@YAHG@Z@@SAHG@Z ; wrapped_invoker<int (__cdecl*)(unsigned short),&iswspace>::call
_o_iswupper = ?call@?$wrapped_invoker@P6AHG@Z$1?iswupper@@YAHG@Z@@SAHG@Z ; wrapped_invoker<int (__cdecl*)(unsigned short),&iswupper>::call
_o_iswxdigit = ?call@?$wrapped_invoker@P6AHG@Z$1?iswxdigit@@YAHG@Z@@SAHG@Z ; wrapped_invoker<int (__cdecl*)(unsigned short),&iswxdigit>::call
_o_isxdigit = ?call@?$wrapped_invoker@P6AHH@Z$1?isxdigit@@YAHH@Z@@SAHH@Z ; wrapped_invoker<int (__cdecl*)(int),&isxdigit>::call
_o_ldexp = ?call@?$wrapped_invoker@P6ANNH@Z$1?ldexp@@YANNH@Z@@SANNH@Z ; wrapped_invoker<double (__cdecl*)(double,int),&ldexp>::call
_o_lgamma = ?call@?$wrapped_invoker@P6ANN@Z$1?lgamma@@YANN@Z@@SANN@Z ; wrapped_invoker<double (__cdecl*)(double),&lgamma>::call
_o_lgammaf = ?call@?$wrapped_invoker@P6AMM@Z$1?lgammaf@@YAMM@Z@@SAMM@Z ; wrapped_invoker<float (__cdecl*)(float),&lgammaf>::call
_o_lgammal = ?call@?$wrapped_invoker@P6AOO@Z$1?lgammal@@YAOO@Z@@SAOO@Z ; wrapped_invoker<long double (__cdecl*)(long double),&lgammal>::call
_o_llrint = ?call@?$wrapped_invoker@P6A_JN@Z$1?llrint@@YA_JN@Z@@SA_JN@Z ; wrapped_invoker<__int64 (__cdecl*)(double),&llrint>::call
_o_llrintf = ?call@?$wrapped_invoker@P6A_JM@Z$1?llrintf@@YA_JM@Z@@SA_JM@Z ; wrapped_invoker<__int64 (__cdecl*)(float),&llrintf>::call
_o_llrintl = ?call@?$wrapped_invoker@P6A_JO@Z$1?llrintl@@YA_JO@Z@@SA_JO@Z ; wrapped_invoker<__int64 (__cdecl*)(long double),&llrintl>::call
_o_llround = ?call@?$wrapped_invoker@P6A_JN@Z$1?llround@@YA_JN@Z@@SA_JN@Z ; wrapped_invoker<__int64 (__cdecl*)(double),&llround>::call
_o_llroundf = ?call@?$wrapped_invoker@P6A_JM@Z$1?llroundf@@YA_JM@Z@@SA_JM@Z ; wrapped_invoker<__int64 (__cdecl*)(float),&llroundf>::call
_o_llroundl = ?call@?$wrapped_invoker@P6A_JO@Z$1?llroundl@@YA_JO@Z@@SA_JO@Z ; wrapped_invoker<__int64 (__cdecl*)(long double),&llroundl>::call
_o_localeconv = ?call@?$wrapped_invoker@P6APEAUlconv@@XZ$1?localeconv@@YAPEAU1@XZ@@SAPEAUlconv@@XZ ; wrapped_invoker<lconv * (__cdecl*)(void),&localeconv>::call
_o_log = ?call@?$wrapped_invoker@P6ANN@Z$1?log@@YANN@Z@@SANN@Z ; wrapped_invoker<double (__cdecl*)(double),&log>::call
_o_log10 = ?call@?$wrapped_invoker@P6ANN@Z$1?log10@@YANN@Z@@SANN@Z ; wrapped_invoker<double (__cdecl*)(double),&log10>::call
_o_log10f = ?call@?$wrapped_invoker@P6AMM@Z$1?log10f@@YAMM@Z@@SAMM@Z ; wrapped_invoker<float (__cdecl*)(float),&log10f>::call
_o_log1p = ?call@?$wrapped_invoker@P6ANN@Z$1?log1p@@YANN@Z@@SANN@Z ; wrapped_invoker<double (__cdecl*)(double),&log1p>::call
_o_log1pf = ?call@?$wrapped_invoker@P6AMM@Z$1?log1pf@@YAMM@Z@@SAMM@Z ; wrapped_invoker<float (__cdecl*)(float),&log1pf>::call
_o_log1pl = ?call@?$wrapped_invoker@P6AOO@Z$1?log1pl@@YAOO@Z@@SAOO@Z ; wrapped_invoker<long double (__cdecl*)(long double),&log1pl>::call
_o_log2 = ?call@?$wrapped_invoker@P6ANN@Z$1?log2@@YANN@Z@@SANN@Z ; wrapped_invoker<double (__cdecl*)(double),&log2>::call
_o_log2f = ?call@?$wrapped_invoker@P6AMM@Z$1?log2f@@YAMM@Z@@SAMM@Z ; wrapped_invoker<float (__cdecl*)(float),&log2f>::call
_o_log2l = ?call@?$wrapped_invoker@P6AOO@Z$1?log2l@@YAOO@Z@@SAOO@Z ; wrapped_invoker<long double (__cdecl*)(long double),&log2l>::call
_o_logb = ?call@?$wrapped_invoker@P6ANN@Z$1?logb@@YANN@Z@@SANN@Z ; wrapped_invoker<double (__cdecl*)(double),&logb>::call
_o_logbf = ?call@?$wrapped_invoker@P6AMM@Z$1?logbf@@YAMM@Z@@SAMM@Z ; wrapped_invoker<float (__cdecl*)(float),&logbf>::call
_o_logbl = ?call@?$wrapped_invoker@P6AOO@Z$1?logbl@@YAOO@Z@@SAOO@Z ; wrapped_invoker<long double (__cdecl*)(long double),&logbl>::call
_o_logf = ?call@?$wrapped_invoker@P6AMM@Z$1?logf@@YAMM@Z@@SAMM@Z ; wrapped_invoker<float (__cdecl*)(float),&logf>::call
_o_lrint = ?call@?$wrapped_invoker@P6AJN@Z$1?lrint@@YAJN@Z@@SAJN@Z ; wrapped_invoker<long (__cdecl*)(double),&lrint>::call
_o_lrintf = ?call@?$wrapped_invoker@P6AJM@Z$1?lrintf@@YAJM@Z@@SAJM@Z ; wrapped_invoker<long (__cdecl*)(float),&lrintf>::call
_o_lrintl = ?call@?$wrapped_invoker@P6AJO@Z$1?lrintl@@YAJO@Z@@SAJO@Z ; wrapped_invoker<long (__cdecl*)(long double),&lrintl>::call
_o_lround = ?call@?$wrapped_invoker@P6AJN@Z$1?lround@@YAJN@Z@@SAJN@Z ; wrapped_invoker<long (__cdecl*)(double),&lround>::call
_o_lroundf = ?call@?$wrapped_invoker@P6AJM@Z$1?lroundf@@YAJM@Z@@SAJM@Z ; wrapped_invoker<long (__cdecl*)(float),&lroundf>::call
_o_lroundl = ?call@?$wrapped_invoker@P6AJO@Z$1?lroundl@@YAJO@Z@@SAJO@Z ; wrapped_invoker<long (__cdecl*)(long double),&lroundl>::call
_o_malloc = ?call@?$wrapped_invoker@P6APEAX_K@Z$1?malloc@@YAPEAX0@Z@@SAPEAX_K@Z ; wrapped_invoker<void * (__cdecl*)(unsigned __int64),&malloc>::call
_o_mblen = ?call@?$wrapped_invoker@P6AHPEBD_K@Z$1?mblen@@YAH01@Z@@SAHPEBD_K@Z ; wrapped_invoker<int (__cdecl*)(char const *,unsigned __int64),&mblen>::call
_o_mbrlen = ?call@?$wrapped_invoker@P6A_KPEBD_KPEAU_Mbstatet@@@Z$1?mbrlen@@YA_K012@Z@@SA_KPEBD_KPEAU_Mbstatet@@@Z ; wrapped_invoker<unsigned __int64 (__cdecl*)(char const *,unsigned __int64,_Mbstatet *),&mbrlen>::call
_o_mbrtoc16 = ?call@?$wrapped_invoker@P6A_KPEA_SPEBD_KPEAU_Mbstatet@@@Z$1?mbrtoc16@@YA_K0123@Z@@SA_KPEA_SPEBD_KPEAU_Mbstatet@@@Z ; wrapped_invoker<unsigned __int64 (__cdecl*)(char16_t *,char const *,unsigned __int64,_Mbstatet *),&mbrtoc16>::call
_o_mbrtoc32 = ?call@?$wrapped_invoker@P6A_KPEA_UPEBD_KPEAU_Mbstatet@@@Z$1?mbrtoc32@@YA_K0123@Z@@SA_KPEA_UPEBD_KPEAU_Mbstatet@@@Z ; wrapped_invoker<unsigned __int64 (__cdecl*)(char32_t *,char const *,unsigned __int64,_Mbstatet *),&mbrtoc32>::call
_o_mbrtowc = ?call@?$wrapped_invoker@P6A_KPEA_WPEBD_KPEAU_Mbstatet@@@Z$1?mbrtowc@@YA_K0123@Z@@SA_KPEA_WPEBD_KPEAU_Mbstatet@@@Z ; wrapped_invoker<unsigned __int64 (__cdecl*)(wchar_t *,char const *,unsigned __int64,_Mbstatet *),&mbrtowc>::call
_o_mbsrtowcs = ?call@?$wrapped_invoker@P6A_KPEA_WPEAPEBD_KPEAU_Mbstatet@@@Z$1?mbsrtowcs@@YA_K0123@Z@@SA_KPEA_WPEAPEBD_KPEAU_Mbstatet@@@Z ; wrapped_invoker<unsigned __int64 (__cdecl*)(wchar_t *,char const * *,unsigned __int64,_Mbstatet *),&mbsrtowcs>::call
_o_mbsrtowcs_s = ?call@?$wrapped_invoker@P6AHPEA_KPEA_W_KPEAPEBD2PEAU_Mbstatet@@@Z$1?mbsrtowcs_s@@YAH012324@Z@@SAHPEA_KPEA_W_KPEAPEBD2PEAU_Mbstatet@@@Z ; wrapped_invoker<int (__cdecl*)(unsigned __int64 *,wchar_t *,unsigned __int64,char const * *,unsigned __int64,_Mbstatet *),&mbsrtowcs_s>::call
_o_mbstowcs = ?call@?$wrapped_invoker@P6A_KPEA_WPEBD_K@Z$1?mbstowcs@@YA_K012@Z@@SA_KPEA_WPEBD_K@Z ; wrapped_invoker<unsigned __int64 (__cdecl*)(wchar_t *,char const *,unsigned __int64),&mbstowcs>::call
_o_mbstowcs_s = ?call@?$wrapped_invoker@P6AHPEA_KPEA_W_KPEBD2@Z$1?mbstowcs_s@@YAH01232@Z@@SAHPEA_KPEA_W_KPEBD2@Z ; wrapped_invoker<int (__cdecl*)(unsigned __int64 *,wchar_t *,unsigned __int64,char const *,unsigned __int64),&mbstowcs_s>::call
_o_mbtowc = ?call@?$wrapped_invoker@P6AHPEA_WPEBD_K@Z$1?mbtowc@@YAH012@Z@@SAHPEA_WPEBD_K@Z ; wrapped_invoker<int (__cdecl*)(wchar_t *,char const *,unsigned __int64),&mbtowc>::call
_o_memset = ?call@?$wrapped_invoker@P6APEAXPEAXH_K@Z$1?memset@@YAPEAX0H1@Z@@SAPEAXPEAXH_K@Z ; wrapped_invoker<void * (__cdecl*)(void *,int,unsigned __int64),&memset>::call
_o_modf = ?call@?$wrapped_invoker@P6ANNPEAN@Z$1?modf@@YANN0@Z@@SANNPEAN@Z ; wrapped_invoker<double (__cdecl*)(double,double *),&modf>::call
_o_modff = ?call@?$wrapped_invoker@P6AMMPEAM@Z$1?modff@@YAMM0@Z@@SAMMPEAM@Z ; wrapped_invoker<float (__cdecl*)(float,float *),&modff>::call
_o_nan = ?call@?$wrapped_invoker@P6ANPEBD@Z$1?nan@@YAN0@Z@@SANPEBD@Z ; wrapped_invoker<double (__cdecl*)(char const *),&nan>::call
_o_nanf = ?call@?$wrapped_invoker@P6AMPEBD@Z$1?nanf@@YAM0@Z@@SAMPEBD@Z ; wrapped_invoker<float (__cdecl*)(char const *),&nanf>::call
_o_nanl = ?call@?$wrapped_invoker@P6AOPEBD@Z$1?nanl@@YAO0@Z@@SAOPEBD@Z ; wrapped_invoker<long double (__cdecl*)(char const *),&nanl>::call
_o_nearbyint = ?call@?$wrapped_invoker@P6ANN@Z$1?nearbyint@@YANN@Z@@SANN@Z ; wrapped_invoker<double (__cdecl*)(double),&nearbyint>::call
_o_nearbyintf = ?call@?$wrapped_invoker@P6AMM@Z$1?nearbyintf@@YAMM@Z@@SAMM@Z ; wrapped_invoker<float (__cdecl*)(float),&nearbyintf>::call
_o_nearbyintl = ?call@?$wrapped_invoker@P6AOO@Z$1?nearbyintl@@YAOO@Z@@SAOO@Z ; wrapped_invoker<long double (__cdecl*)(long double),&nearbyintl>::call
_o_nextafter = ?call@?$wrapped_invoker@P6ANNN@Z$1?nextafter@@YANNN@Z@@SANNN@Z ; wrapped_invoker<double (__cdecl*)(double,double),&nextafter>::call
_o_nextafterf = ?call@?$wrapped_invoker@P6AMMM@Z$1?nextafterf@@YAMMM@Z@@SAMMM@Z ; wrapped_invoker<float (__cdecl*)(float,float),&nextafterf>::call
_o_nextafterl = ?call@?$wrapped_invoker@P6AOOO@Z$1?nextafterl@@YAOOO@Z@@SAOOO@Z ; wrapped_invoker<long double (__cdecl*)(long double,long double),&nextafterl>::call
_o_nexttoward = ?call@?$wrapped_invoker@P6ANNO@Z$1?nexttoward@@YANNO@Z@@SANNO@Z ; wrapped_invoker<double (__cdecl*)(double,long double),&nexttoward>::call
_o_nexttowardf = ?call@?$wrapped_invoker@P6AMMO@Z$1?nexttowardf@@YAMMO@Z@@SAMMO@Z ; wrapped_invoker<float (__cdecl*)(float,long double),&nexttowardf>::call
_o_nexttowardl = ?call@?$wrapped_invoker@P6AOOO@Z$1?nexttowardl@@YAOOO@Z@@SAOOO@Z ; wrapped_invoker<long double (__cdecl*)(long double,long double),&nexttowardl>::call
_o_pow = ?call@?$wrapped_invoker@P6ANNN@Z$1?pow@@YANNN@Z@@SANNN@Z ; wrapped_invoker<double (__cdecl*)(double,double),&pow>::call
_o_powf = ?call@?$wrapped_invoker@P6AMMM@Z$1?powf@@YAMMM@Z@@SAMMM@Z ; wrapped_invoker<float (__cdecl*)(float,float),&powf>::call
_o_putc = ?call@?$wrapped_invoker@P6AHHPEAU_iobuf@@@Z$1?putc@@YAHH0@Z@@SAHHPEAU_iobuf@@@Z ; wrapped_invoker<int (__cdecl*)(int,_iobuf *),&putc>::call
_o_putchar = ?call@?$wrapped_invoker@P6AHH@Z$1?putchar@@YAHH@Z@@SAHH@Z ; wrapped_invoker<int (__cdecl*)(int),&putchar>::call
_o_puts = ?call@?$wrapped_invoker@P6AHPEBD@Z$1?puts@@YAH0@Z@@SAHPEBD@Z ; wrapped_invoker<int (__cdecl*)(char const *),&puts>::call
_o_putwc = ?call@?$wrapped_invoker@P6AG_WPEAU_iobuf@@@Z$1?putwc@@YAG01@Z@@SAG_WPEAU_iobuf@@@Z ; wrapped_invoker<unsigned short (__cdecl*)(wchar_t,_iobuf *),&putwc>::call
_o_putwchar = ?call@?$wrapped_invoker@P6AG_W@Z$1?putwchar@@YAG0@Z@@SAG_W@Z ; wrapped_invoker<unsigned short (__cdecl*)(wchar_t),&putwchar>::call
_o_qsort = ?call@?$wrapped_invoker@P6AXPEAX_K1P6AHPEBX2@Z@Z$1?qsort@@YAX0113@Z@@SAXPEAX_K1P6AHPEBX2@Z@Z ; wrapped_invoker<void (__cdecl*)(void *,unsigned __int64,unsigned __int64,int (__cdecl*)(void const *,void const *)),&qsort>::call
_o_qsort_s = ?call@?$wrapped_invoker@P6AXPEAX_K1P6AH0PEBX2@Z0@Z$1?qsort_s@@YAX01130@Z@@SAXPEAX_K1P6AH0PEBX2@Z0@Z ; wrapped_invoker<void (__cdecl*)(void *,unsigned __int64,unsigned __int64,int (__cdecl*)(void *,void const *,void const *),void *),&qsort_s>::call
_o_raise = ?call@?$wrapped_invoker@P6AHH@Z$1?raise@@YAHH@Z@@SAHH@Z ; wrapped_invoker<int (__cdecl*)(int),&raise>::call
_o_rand = ?call@?$wrapped_invoker@P6AHXZ$1?rand@@YAHXZ@@SAHXZ ; wrapped_invoker<int (__cdecl*)(void),&rand>::call
_o_rand_s = ?call@?$wrapped_invoker@P6AHPEAI@Z$1?rand_s@@YAH0@Z@@SAHPEAI@Z ; wrapped_invoker<int (__cdecl*)(unsigned int *),&rand_s>::call
_o_realloc = ?call@?$wrapped_invoker@P6APEAXPEAX_K@Z$1?realloc@@YAPEAX01@Z@@SAPEAXPEAX_K@Z ; wrapped_invoker<void * (__cdecl*)(void *,unsigned __int64),&realloc>::call
_o_remainder = ?call@?$wrapped_invoker@P6ANNN@Z$1?remainder@@YANNN@Z@@SANNN@Z ; wrapped_invoker<double (__cdecl*)(double,double),&remainder>::call
_o_remainderf = ?call@?$wrapped_invoker@P6AMMM@Z$1?remainderf@@YAMMM@Z@@SAMMM@Z ; wrapped_invoker<float (__cdecl*)(float,float),&remainderf>::call
_o_remainderl = ?call@?$wrapped_invoker@P6AOOO@Z$1?remainderl@@YAOOO@Z@@SAOOO@Z ; wrapped_invoker<long double (__cdecl*)(long double,long double),&remainderl>::call
_o_remove = ?call@?$wrapped_invoker@P6AHPEBD@Z$1?remove@@YAH0@Z@@SAHPEBD@Z ; wrapped_invoker<int (__cdecl*)(char const *),&remove>::call
_o_remquo = ?call@?$wrapped_invoker@P6ANNNPEAH@Z$1?remquo@@YANNN0@Z@@SANNNPEAH@Z ; wrapped_invoker<double (__cdecl*)(double,double,int *),&remquo>::call
_o_remquof = ?call@?$wrapped_invoker@P6AMMMPEAH@Z$1?remquof@@YAMMM0@Z@@SAMMMPEAH@Z ; wrapped_invoker<float (__cdecl*)(float,float,int *),&remquof>::call
_o_remquol = ?call@?$wrapped_invoker@P6AOOOPEAH@Z$1?remquol@@YAOOO0@Z@@SAOOOPEAH@Z ; wrapped_invoker<long double (__cdecl*)(long double,long double,int *),&remquol>::call
_o_rename = ?call@?$wrapped_invoker@P6AHPEBD0@Z$1?rename@@YAH00@Z@@SAHPEBD0@Z ; wrapped_invoker<int (__cdecl*)(char const *,char const *),&rename>::call
_o_rewind = ?call@?$wrapped_invoker@P6AXPEAU_iobuf@@@Z$1?rewind@@YAX0@Z@@SAXPEAU_iobuf@@@Z ; wrapped_invoker<void (__cdecl*)(_iobuf *),&rewind>::call
_o_rint = ?call@?$wrapped_invoker@P6ANN@Z$1?rint@@YANN@Z@@SANN@Z ; wrapped_invoker<double (__cdecl*)(double),&rint>::call
_o_rintf = ?call@?$wrapped_invoker@P6AMM@Z$1?rintf@@YAMM@Z@@SAMM@Z ; wrapped_invoker<float (__cdecl*)(float),&rintf>::call
_o_rintl = ?call@?$wrapped_invoker@P6AOO@Z$1?rintl@@YAOO@Z@@SAOO@Z ; wrapped_invoker<long double (__cdecl*)(long double),&rintl>::call
_o_round = ?call@?$wrapped_invoker@P6ANN@Z$1?round@@YANN@Z@@SANN@Z ; wrapped_invoker<double (__cdecl*)(double),&round>::call
_o_roundf = ?call@?$wrapped_invoker@P6AMM@Z$1?roundf@@YAMM@Z@@SAMM@Z ; wrapped_invoker<float (__cdecl*)(float),&roundf>::call
_o_roundl = ?call@?$wrapped_invoker@P6AOO@Z$1?roundl@@YAOO@Z@@SAOO@Z ; wrapped_invoker<long double (__cdecl*)(long double),&roundl>::call
_o_scalbln = ?call@?$wrapped_invoker@P6ANNJ@Z$1?scalbln@@YANNJ@Z@@SANNJ@Z ; wrapped_invoker<double (__cdecl*)(double,long),&scalbln>::call
_o_scalblnf = ?call@?$wrapped_invoker@P6AMMJ@Z$1?scalblnf@@YAMMJ@Z@@SAMMJ@Z ; wrapped_invoker<float (__cdecl*)(float,long),&scalblnf>::call
_o_scalblnl = ?call@?$wrapped_invoker@P6AOOJ@Z$1?scalblnl@@YAOOJ@Z@@SAOOJ@Z ; wrapped_invoker<long double (__cdecl*)(long double,long),&scalblnl>::call
_o_scalbn = ?call@?$wrapped_invoker@P6ANNH@Z$1?scalbn@@YANNH@Z@@SANNH@Z ; wrapped_invoker<double (__cdecl*)(double,int),&scalbn>::call
_o_scalbnf = ?call@?$wrapped_invoker@P6AMMH@Z$1?scalbnf@@YAMMH@Z@@SAMMH@Z ; wrapped_invoker<float (__cdecl*)(float,int),&scalbnf>::call
_o_scalbnl = ?call@?$wrapped_invoker@P6AOOH@Z$1?scalbnl@@YAOOH@Z@@SAOOH@Z ; wrapped_invoker<long double (__cdecl*)(long double,int),&scalbnl>::call
_o_set_terminate = ?call@?$wrapped_invoker@P6AP6AXXZP6AXXZ@_E$1?set_terminate@@YAP6AXXZ0@Z@@SAP6AXXZP6AXXZ@Z ; wrapped_invoker<void (__cdecl*(__cdecl*)(void (__cdecl*)(void)) noexcept)(void),&set_terminate>::call
_o_setbuf = ?call@?$wrapped_invoker@P6AXPEAU_iobuf@@PEAD@Z$1?setbuf@@YAX01@Z@@SAXPEAU_iobuf@@PEAD@Z ; wrapped_invoker<void (__cdecl*)(_iobuf *,char *),&setbuf>::call
_o_setlocale = ?call@?$wrapped_invoker@P6APEADHPEBD@Z$1?setlocale@@YAPEADH0@Z@@SAPEADHPEBD@Z ; wrapped_invoker<char * (__cdecl*)(int,char const *),&setlocale>::call
_o_setvbuf = ?call@?$wrapped_invoker@P6AHPEAU_iobuf@@PEADH_K@Z$1?setvbuf@@YAH01H2@Z@@SAHPEAU_iobuf@@PEADH_K@Z ; wrapped_invoker<int (__cdecl*)(_iobuf *,char *,int,unsigned __int64),&setvbuf>::call
_o_sin = ?call@?$wrapped_invoker@P6ANN@Z$1?sin@@YANN@Z@@SANN@Z ; wrapped_invoker<double (__cdecl*)(double),&sin>::call
_o_sinf = ?call@?$wrapped_invoker@P6AMM@Z$1?sinf@@YAMM@Z@@SAMM@Z ; wrapped_invoker<float (__cdecl*)(float),&sinf>::call
_o_sinh = ?call@?$wrapped_invoker@P6ANN@Z$1?sinh@@YANN@Z@@SANN@Z ; wrapped_invoker<double (__cdecl*)(double),&sinh>::call
_o_sinhf = ?call@?$wrapped_invoker@P6AMM@Z$1?sinhf@@YAMM@Z@@SAMM@Z ; wrapped_invoker<float (__cdecl*)(float),&sinhf>::call
_o_sqrt = ?call@?$wrapped_invoker@P6ANN@Z$1?sqrt@@YANN@Z@@SANN@Z ; wrapped_invoker<double (__cdecl*)(double),&sqrt>::call
_o_sqrtf = ?call@?$wrapped_invoker@P6AMM@Z$1?sqrtf@@YAMM@Z@@SAMM@Z ; wrapped_invoker<float (__cdecl*)(float),&sqrtf>::call
_o_srand = ?call@?$wrapped_invoker@P6AXI@Z$1?srand@@YAXI@Z@@SAXI@Z ; wrapped_invoker<void (__cdecl*)(unsigned int),&srand>::call
_o_strcat_s = ?call@?$wrapped_invoker@P6AHPEAD_KPEBD@Z$1?strcat_s@@YAH012@Z@@SAHPEAD_KPEBD@Z ; wrapped_invoker<int (__cdecl*)(char *,unsigned __int64,char const *),&strcat_s>::call
_o_strcoll = ?call@?$wrapped_invoker@P6AHPEBD0@Z$1?strcoll@@YAH00@Z@@SAHPEBD0@Z ; wrapped_invoker<int (__cdecl*)(char const *,char const *),&strcoll>::call
_o_strcpy_s = ?call@?$wrapped_invoker@P6AHPEAD_KPEBD@Z$1?strcpy_s@@YAH012@Z@@SAHPEAD_KPEBD@Z ; wrapped_invoker<int (__cdecl*)(char *,unsigned __int64,char const *),&strcpy_s>::call
_o_strerror = ?call@?$wrapped_invoker@P6APEADH@Z$1?strerror@@YAPEADH@Z@@SAPEADH@Z ; wrapped_invoker<char * (__cdecl*)(int),&strerror>::call
_o_strerror_s = ?call@?$wrapped_invoker@P6AHPEAD_KH@Z$1?strerror_s@@YAH01H@Z@@SAHPEAD_KH@Z ; wrapped_invoker<int (__cdecl*)(char *,unsigned __int64,int),&strerror_s>::call
_o_strftime = ?call@?$wrapped_invoker@P6A_KPEAD_KPEBDPEBUtm@@@Z$1?strftime@@YA_K0123@Z@@SA_KPEAD_KPEBDPEBUtm@@@Z ; wrapped_invoker<unsigned __int64 (__cdecl*)(char *,unsigned __int64,char const *,tm const *),&strftime>::call
_o_strncat_s = ?call@?$wrapped_invoker@P6AHPEAD_KPEBD1@Z$1?strncat_s@@YAH0121@Z@@SAHPEAD_KPEBD1@Z ; wrapped_invoker<int (__cdecl*)(char *,unsigned __int64,char const *,unsigned __int64),&strncat_s>::call
_o_strncpy_s = ?call@?$wrapped_invoker@P6AHPEAD_KPEBD1@Z$1?strncpy_s@@YAH0121@Z@@SAHPEAD_KPEBD1@Z ; wrapped_invoker<int (__cdecl*)(char *,unsigned __int64,char const *,unsigned __int64),&strncpy_s>::call
_o_strtod = ?call@?$wrapped_invoker@P6ANPEBDPEAPEAD@Z$1?strtod@@YAN01@Z@@SANPEBDPEAPEAD@Z ; wrapped_invoker<double (__cdecl*)(char const *,char * *),&strtod>::call
_o_strtof = ?call@?$wrapped_invoker@P6AMPEBDPEAPEAD@Z$1?strtof@@YAM01@Z@@SAMPEBDPEAPEAD@Z ; wrapped_invoker<float (__cdecl*)(char const *,char * *),&strtof>::call
_o_strtok = ?call@?$wrapped_invoker@P6APEADPEADPEBD@Z$1?strtok@@YAPEAD01@Z@@SAPEADPEADPEBD@Z ; wrapped_invoker<char * (__cdecl*)(char *,char const *),&strtok>::call
_o_strtok_s = ?call@?$wrapped_invoker@P6APEADPEADPEBDPEAPEAD@Z$1?strtok_s@@YAPEAD012@Z@@SAPEADPEADPEBDPEAPEAD@Z ; wrapped_invoker<char * (__cdecl*)(char *,char const *,char * *),&strtok_s>::call
_o_strtol = ?call@?$wrapped_invoker@P6AJPEBDPEAPEADH@Z$1?strtol@@YAJ01H@Z@@SAJPEBDPEAPEADH@Z ; wrapped_invoker<long (__cdecl*)(char const *,char * *,int),&strtol>::call
_o_strtold = ?call@?$wrapped_invoker@P6AOPEBDPEAPEAD@Z$1?strtold@@YAO01@Z@@SAOPEBDPEAPEAD@Z ; wrapped_invoker<long double (__cdecl*)(char const *,char * *),&strtold>::call
_o_strtoll = ?call@?$wrapped_invoker@P6A_JPEBDPEAPEADH@Z$1?strtoll@@YA_J01H@Z@@SA_JPEBDPEAPEADH@Z ; wrapped_invoker<__int64 (__cdecl*)(char const *,char * *,int),&strtoll>::call
_o_strtoul = ?call@?$wrapped_invoker@P6AKPEBDPEAPEADH@Z$1?strtoul@@YAK01H@Z@@SAKPEBDPEAPEADH@Z ; wrapped_invoker<unsigned long (__cdecl*)(char const *,char * *,int),&strtoul>::call
_o_strtoull = ?call@?$wrapped_invoker@P6A_KPEBDPEAPEADH@Z$1?strtoull@@YA_K01H@Z@@SA_KPEBDPEAPEADH@Z ; wrapped_invoker<unsigned __int64 (__cdecl*)(char const *,char * *,int),&strtoull>::call
_o_system = ?call@?$wrapped_invoker@P6AHPEBD@Z$1?system@@YAH0@Z@@SAHPEBD@Z ; wrapped_invoker<int (__cdecl*)(char const *),&system>::call
_o_tan = ?call@?$wrapped_invoker@P6ANN@Z$1?tan@@YANN@Z@@SANN@Z ; wrapped_invoker<double (__cdecl*)(double),&tan>::call
_o_tanf = ?call@?$wrapped_invoker@P6AMM@Z$1?tanf@@YAMM@Z@@SAMM@Z ; wrapped_invoker<float (__cdecl*)(float),&tanf>::call
_o_tanh = ?call@?$wrapped_invoker@P6ANN@Z$1?tanh@@YANN@Z@@SANN@Z ; wrapped_invoker<double (__cdecl*)(double),&tanh>::call
_o_tanhf = ?call@?$wrapped_invoker@P6AMM@Z$1?tanhf@@YAMM@Z@@SAMM@Z ; wrapped_invoker<float (__cdecl*)(float),&tanhf>::call
_o_terminate = ?call@?$wrapped_invoker@P6AXX_E$1?terminate@@YAXXZ@@SAXXZ ; wrapped_invoker<void (__cdecl*)(void) noexcept,&terminate>::call
_o_tgamma = ?call@?$wrapped_invoker@P6ANN@Z$1?tgamma@@YANN@Z@@SANN@Z ; wrapped_invoker<double (__cdecl*)(double),&tgamma>::call
_o_tgammaf = ?call@?$wrapped_invoker@P6AMM@Z$1?tgammaf@@YAMM@Z@@SAMM@Z ; wrapped_invoker<float (__cdecl*)(float),&tgammaf>::call
_o_tgammal = ?call@?$wrapped_invoker@P6AOO@Z$1?tgammal@@YAOO@Z@@SAOO@Z ; wrapped_invoker<long double (__cdecl*)(long double),&tgammal>::call
_o_tmpfile_s = ?call@?$wrapped_invoker@P6AHPEAPEAU_iobuf@@@Z$1?tmpfile_s@@YAH0@Z@@SAHPEAPEAU_iobuf@@@Z ; wrapped_invoker<int (__cdecl*)(_iobuf * *),&tmpfile_s>::call
_o_tmpnam_s = ?call@?$wrapped_invoker@P6AHPEAD_K@Z$1?tmpnam_s@@YAH01@Z@@SAHPEAD_K@Z ; wrapped_invoker<int (__cdecl*)(char *,unsigned __int64),&tmpnam_s>::call
_o_tolower = ?call@?$wrapped_invoker@P6AHH@Z$1?tolower@@YAHH@Z@@SAHH@Z ; wrapped_invoker<int (__cdecl*)(int),&tolower>::call
_o_toupper = ?call@?$wrapped_invoker@P6AHH@Z$1?toupper@@YAHH@Z@@SAHH@Z ; wrapped_invoker<int (__cdecl*)(int),&toupper>::call
_o_towlower = ?call@?$wrapped_invoker@P6AGG@Z$1?towlower@@YAGG@Z@@SAGG@Z ; wrapped_invoker<unsigned short (__cdecl*)(unsigned short),&towlower>::call
_o_towupper = ?call@?$wrapped_invoker@P6AGG@Z$1?towupper@@YAGG@Z@@SAGG@Z ; wrapped_invoker<unsigned short (__cdecl*)(unsigned short),&towupper>::call
_o_ungetc = ?call@?$wrapped_invoker@P6AHHPEAU_iobuf@@@Z$1?ungetc@@YAHH0@Z@@SAHHPEAU_iobuf@@@Z ; wrapped_invoker<int (__cdecl*)(int,_iobuf *),&ungetc>::call
_o_ungetwc = ?call@?$wrapped_invoker@P6AGGPEAU_iobuf@@@Z$1?ungetwc@@YAGG0@Z@@SAGGPEAU_iobuf@@@Z ; wrapped_invoker<unsigned short (__cdecl*)(unsigned short,_iobuf *),&ungetwc>::call
_o_wcrtomb = ?call@?$wrapped_invoker@P6A_KPEAD_WPEAU_Mbstatet@@@Z$1?wcrtomb@@YA_K012@Z@@SA_KPEAD_WPEAU_Mbstatet@@@Z ; wrapped_invoker<unsigned __int64 (__cdecl*)(char *,wchar_t,_Mbstatet *),&wcrtomb>::call
_o_wcrtomb_s = ?call@?$wrapped_invoker@P6AHPEA_KPEAD_K_WPEAU_Mbstatet@@@Z$1?wcrtomb_s@@YAH01234@Z@@SAHPEA_KPEAD_K_WPEAU_Mbstatet@@@Z ; wrapped_invoker<int (__cdecl*)(unsigned __int64 *,char *,unsigned __int64,wchar_t,_Mbstatet *),&wcrtomb_s>::call
_o_wcscat_s = ?call@?$wrapped_invoker@P6AHPEA_W_KPEB_W@Z$1?wcscat_s@@YAH012@Z@@SAHPEA_W_KPEB_W@Z ; wrapped_invoker<int (__cdecl*)(wchar_t *,unsigned __int64,wchar_t const *),&wcscat_s>::call
_o_wcscoll = ?call@?$wrapped_invoker@P6AHPEB_W0@Z$1?wcscoll@@YAH00@Z@@SAHPEB_W0@Z ; wrapped_invoker<int (__cdecl*)(wchar_t const *,wchar_t const *),&wcscoll>::call
_o_wcscpy = ?call@?$wrapped_invoker@P6APEA_WPEA_WPEB_W@Z$1?wcscpy@@YAPEA_W01@Z@@SAPEA_WPEA_WPEB_W@Z ; wrapped_invoker<wchar_t * (__cdecl*)(wchar_t *,wchar_t const *),&wcscpy>::call
_o_wcscpy_s = ?call@?$wrapped_invoker@P6AHPEA_W_KPEB_W@Z$1?wcscpy_s@@YAH012@Z@@SAHPEA_W_KPEB_W@Z ; wrapped_invoker<int (__cdecl*)(wchar_t *,unsigned __int64,wchar_t const *),&wcscpy_s>::call
_o_wcsftime = ?call@?$wrapped_invoker@P6A_KPEA_W_KPEB_WPEBUtm@@@Z$1?wcsftime@@YA_K0123@Z@@SA_KPEA_W_KPEB_WPEBUtm@@@Z ; wrapped_invoker<unsigned __int64 (__cdecl*)(wchar_t *,unsigned __int64,wchar_t const *,tm const *),&wcsftime>::call
_o_wcsncat_s = ?call@?$wrapped_invoker@P6AHPEA_W_KPEB_W1@Z$1?wcsncat_s@@YAH0121@Z@@SAHPEA_W_KPEB_W1@Z ; wrapped_invoker<int (__cdecl*)(wchar_t *,unsigned __int64,wchar_t const *,unsigned __int64),&wcsncat_s>::call
_o_wcsncpy_s = ?call@?$wrapped_invoker@P6AHPEA_W_KPEB_W1@Z$1?wcsncpy_s@@YAH0121@Z@@SAHPEA_W_KPEB_W1@Z ; wrapped_invoker<int (__cdecl*)(wchar_t *,unsigned __int64,wchar_t const *,unsigned __int64),&wcsncpy_s>::call
_o_wcsrtombs = ?call@?$wrapped_invoker@P6A_KPEADPEAPEB_W_KPEAU_Mbstatet@@@Z$1?wcsrtombs@@YA_K0123@Z@@SA_KPEADPEAPEB_W_KPEAU_Mbstatet@@@Z ; wrapped_invoker<unsigned __int64 (__cdecl*)(char *,wchar_t const * *,unsigned __int64,_Mbstatet *),&wcsrtombs>::call
_o_wcsrtombs_s = ?call@?$wrapped_invoker@P6AHPEA_KPEAD_KPEAPEB_W2PEAU_Mbstatet@@@Z$1?wcsrtombs_s@@YAH012324@Z@@SAHPEA_KPEAD_KPEAPEB_W2PEAU_Mbstatet@@@Z ; wrapped_invoker<int (__cdecl*)(unsigned __int64 *,char *,unsigned __int64,wchar_t const * *,unsigned __int64,_Mbstatet *),&wcsrtombs_s>::call
_o_wcstod = ?call@?$wrapped_invoker@P6ANPEB_WPEAPEA_W@Z$1?wcstod@@YAN01@Z@@SANPEB_WPEAPEA_W@Z ; wrapped_invoker<double (__cdecl*)(wchar_t const *,wchar_t * *),&wcstod>::call
_o_wcstof = ?call@?$wrapped_invoker@P6AMPEB_WPEAPEA_W@Z$1?wcstof@@YAM01@Z@@SAMPEB_WPEAPEA_W@Z ; wrapped_invoker<float (__cdecl*)(wchar_t const *,wchar_t * *),&wcstof>::call
_o_wcstok = ?call@?$wrapped_invoker@P6APEA_WPEA_WPEB_WPEAPEA_W@Z$1?wcstok@@YAPEA_W012@Z@@SAPEA_WPEA_WPEB_WPEAPEA_W@Z ; wrapped_invoker<wchar_t * (__cdecl*)(wchar_t *,wchar_t const *,wchar_t * *),&wcstok>::call
_o_wcstok_s = ?call@?$wrapped_invoker@P6APEA_WPEA_WPEB_WPEAPEA_W@Z$1?wcstok_s@@YAPEA_W012@Z@@SAPEA_WPEA_WPEB_WPEAPEA_W@Z ; wrapped_invoker<wchar_t * (__cdecl*)(wchar_t *,wchar_t const *,wchar_t * *),&wcstok_s>::call
_o_wcstol = ?call@?$wrapped_invoker@P6AJPEB_WPEAPEA_WH@Z$1?wcstol@@YAJ01H@Z@@SAJPEB_WPEAPEA_WH@Z ; wrapped_invoker<long (__cdecl*)(wchar_t const *,wchar_t * *,int),&wcstol>::call
_o_wcstold = ?call@?$wrapped_invoker@P6AOPEB_WPEAPEA_W@Z$1?wcstold@@YAO01@Z@@SAOPEB_WPEAPEA_W@Z ; wrapped_invoker<long double (__cdecl*)(wchar_t const *,wchar_t * *),&wcstold>::call
_o_wcstoll = ?call@?$wrapped_invoker@P6A_JPEB_WPEAPEA_WH@Z$1?wcstoll@@YA_J01H@Z@@SA_JPEB_WPEAPEA_WH@Z ; wrapped_invoker<__int64 (__cdecl*)(wchar_t const *,wchar_t * *,int),&wcstoll>::call
_o_wcstombs = ?call@?$wrapped_invoker@P6A_KPEADPEB_W_K@Z$1?wcstombs@@YA_K012@Z@@SA_KPEADPEB_W_K@Z ; wrapped_invoker<unsigned __int64 (__cdecl*)(char *,wchar_t const *,unsigned __int64),&wcstombs>::call
_o_wcstombs_s = ?call@?$wrapped_invoker@P6AHPEA_KPEAD_KPEB_W2@Z$1?wcstombs_s@@YAH01232@Z@@SAHPEA_KPEAD_KPEB_W2@Z ; wrapped_invoker<int (__cdecl*)(unsigned __int64 *,char *,unsigned __int64,wchar_t const *,unsigned __int64),&wcstombs_s>::call
_o_wcstoul = ?call@?$wrapped_invoker@P6AKPEB_WPEAPEA_WH@Z$1?wcstoul@@YAK01H@Z@@SAKPEB_WPEAPEA_WH@Z ; wrapped_invoker<unsigned long (__cdecl*)(wchar_t const *,wchar_t * *,int),&wcstoul>::call
_o_wcstoull = ?call@?$wrapped_invoker@P6A_KPEB_WPEAPEA_WH@Z$1?wcstoull@@YA_K01H@Z@@SA_KPEB_WPEAPEA_WH@Z ; wrapped_invoker<unsigned __int64 (__cdecl*)(wchar_t const *,wchar_t * *,int),&wcstoull>::call
_o_wctob = ?call@?$wrapped_invoker@P6AHG@Z$1?wctob@@YAHG@Z@@SAHG@Z ; wrapped_invoker<int (__cdecl*)(unsigned short),&wctob>::call
_o_wctomb = ?call@?$wrapped_invoker@P6AHPEAD_W@Z$1?wctomb@@YAH01@Z@@SAHPEAD_W@Z ; wrapped_invoker<int (__cdecl*)(char *,wchar_t),&wctomb>::call
_o_wctomb_s = ?call@?$wrapped_invoker@P6AHPEAHPEAD_K_W@Z$1?wctomb_s@@YAH0123@Z@@SAHPEAHPEAD_K_W@Z ; wrapped_invoker<int (__cdecl*)(int *,char *,unsigned __int64,wchar_t),&wctomb_s>::call
_o_wmemcpy_s = ?call@?$wrapped_invoker@P6AHPEA_W_KPEB_W1@Z$1?wmemcpy_s@@YAH0121@Z@@SAHPEA_W_KPEB_W1@Z ; wrapped_invoker<int (__cdecl*)(wchar_t *,unsigned __int64,wchar_t const *,unsigned __int64),&wmemcpy_s>::call
_o_wmemmove_s = ?call@?$wrapped_invoker@P6AHPEA_W_KPEB_W1@Z$1?wmemmove_s@@YAH0121@Z@@SAHPEA_W_KPEB_W1@Z ; wrapped_invoker<int (__cdecl*)(wchar_t *,unsigned __int64,wchar_t const *,unsigned __int64),&wmemmove_s>::call
